                              1 ;--------------------------------------------------------
                              2 ; File Created by SDCC : FreeWare ANSI-C Compiler
                              3 ; Version 2.6.1 #4376 (Sep 14 2006)
                              4 ; This file generated Sat Dec 01 23:28:55 2007
                              5 ;--------------------------------------------------------
                              6 	.module fb_in8
                              7 	.optsdcc -mmcs51 --model-small
                              8 	
                              9 ;--------------------------------------------------------
                             10 ; Public variables in this module
                             11 ;--------------------------------------------------------
                             12 	.globl _dataflash
                             13 	.globl _main
                             14 	.globl _pin_changed
                             15 	.globl _find_ga
                             16 	.globl _get_ack
                             17 	.globl _P3_1
                             18 	.globl _P3_0
                             19 	.globl _P1_7
                             20 	.globl _P1_6
                             21 	.globl _P1_5
                             22 	.globl _P1_4
                             23 	.globl _P1_3
                             24 	.globl _P1_2
                             25 	.globl _P1_1
                             26 	.globl _P1_0
                             27 	.globl _P0_7
                             28 	.globl _P0_6
                             29 	.globl _P0_5
                             30 	.globl _P0_4
                             31 	.globl _P0_3
                             32 	.globl _P0_2
                             33 	.globl _P0_1
                             34 	.globl _P0_0
                             35 	.globl _I2CON_0
                             36 	.globl _I2CON_2
                             37 	.globl _I2CON_3
                             38 	.globl _I2CON_4
                             39 	.globl _I2CON_5
                             40 	.globl _I2CON_6
                             41 	.globl _SCON_7
                             42 	.globl _SCON_6
                             43 	.globl _SCON_5
                             44 	.globl _SCON_4
                             45 	.globl _SCON_3
                             46 	.globl _SCON_2
                             47 	.globl _SCON_1
                             48 	.globl _SCON_0
                             49 	.globl _IP0_0
                             50 	.globl _IP0_1
                             51 	.globl _IP0_2
                             52 	.globl _IP0_3
                             53 	.globl _IP0_4
                             54 	.globl _IP0_5
                             55 	.globl _IP0_6
                             56 	.globl _IP1_0
                             57 	.globl _IP1_1
                             58 	.globl _IP1_2
                             59 	.globl _IP1_6
                             60 	.globl _IEN1_0
                             61 	.globl _IEN1_1
                             62 	.globl _IEN1_2
                             63 	.globl _IEN0_0
                             64 	.globl _IEN0_1
                             65 	.globl _IEN0_2
                             66 	.globl _IEN0_3
                             67 	.globl _IEN0_4
                             68 	.globl _IEN0_5
                             69 	.globl _IEN0_6
                             70 	.globl _IEN0_7
                             71 	.globl _TCON_0
                             72 	.globl _TCON_1
                             73 	.globl _TCON_2
                             74 	.globl _TCON_3
                             75 	.globl _TCON_4
                             76 	.globl _TCON_5
                             77 	.globl _TCON_6
                             78 	.globl _TCON_7
                             79 	.globl _CY
                             80 	.globl _AC
                             81 	.globl _F0
                             82 	.globl _RS1
                             83 	.globl _RS0
                             84 	.globl _OV
                             85 	.globl _F1
                             86 	.globl _P
                             87 	.globl _PSW_7
                             88 	.globl _PSW_6
                             89 	.globl _PSW_5
                             90 	.globl _PSW_4
                             91 	.globl _PSW_3
                             92 	.globl _PSW_2
                             93 	.globl _PSW_1
                             94 	.globl _PSW_0
                             95 	.globl _IEN1
                             96 	.globl _IP0H
                             97 	.globl _WFEED2
                             98 	.globl _WFEED1
                             99 	.globl _WDL
                            100 	.globl _WDCON
                            101 	.globl _TRIM
                            102 	.globl _TAMOD
                            103 	.globl _SSTAT
                            104 	.globl _RTCL
                            105 	.globl _RTCH
                            106 	.globl _RTCCON
                            107 	.globl _RSTSRC
                            108 	.globl _PT0AD
                            109 	.globl _PCONA
                            110 	.globl _P3M2
                            111 	.globl _P3M1
                            112 	.globl _P1M2
                            113 	.globl _P1M1
                            114 	.globl _P0M2
                            115 	.globl _P0M1
                            116 	.globl _KBPATN
                            117 	.globl _KBMASK
                            118 	.globl _KBCON
                            119 	.globl _IP1H
                            120 	.globl _IP1
                            121 	.globl _I2STAT
                            122 	.globl _I2SCLL
                            123 	.globl _I2SCLH
                            124 	.globl _I2DAT
                            125 	.globl _I2CON
                            126 	.globl _I2ADR
                            127 	.globl _FMDATA
                            128 	.globl _FMCON
                            129 	.globl _FMADRL
                            130 	.globl _FMADRH
                            131 	.globl _DIVM
                            132 	.globl _CMP2
                            133 	.globl _CMP1
                            134 	.globl _BRGCON
                            135 	.globl _BRGR1
                            136 	.globl _BRGR0
                            137 	.globl _SADEN
                            138 	.globl _SADDR
                            139 	.globl _AUXR1
                            140 	.globl _SBUF
                            141 	.globl _SCON
                            142 	.globl _IP0
                            143 	.globl _IEN0
                            144 	.globl _TH1
                            145 	.globl _TH0
                            146 	.globl _TL1
                            147 	.globl _TL0
                            148 	.globl _TMOD
                            149 	.globl _TCON
                            150 	.globl _PCON
                            151 	.globl _DPH
                            152 	.globl _DPL
                            153 	.globl _SP
                            154 	.globl _B
                            155 	.globl _ACC
                            156 	.globl _PSW
                            157 	.globl _P3
                            158 	.globl _P1
                            159 	.globl _P0
                            160 	.globl _connected
                            161 	.globl _progmode
                            162 	.globl _parity_ok
                            163 	.globl _pdir
                            164 	.globl _timer
                            165 	.globl _objstate
                            166 	.globl _p0h
                            167 	.globl _portbuffer
                            168 	.globl _pcount
                            169 	.globl _conl
                            170 	.globl _conh
                            171 	.globl _gacount
                            172 	.globl _pah
                            173 	.globl _pal
                            174 	.globl _cs
                            175 	.globl _telpos
                            176 	.globl _telegramm
                            177 	.globl _get_byte
                            178 	.globl _ext_int0
                            179 	.globl _sendbyte
                            180 	.globl _start_writecycle
                            181 	.globl _stop_writecycle
                            182 	.globl _write_byte
                            183 	.globl _delay
                            184 	.globl _set_timer1
                            185 	.globl _read_byte
                            186 	.globl _restart_hw
                            187 	.globl _timer1
                            188 	.globl _send_telegramm
                            189 	.globl _send_ack
                            190 	.globl _ucd_opr
                            191 	.globl _ucd_clr
                            192 	.globl _ncd_quit
                            193 	.globl _read_masq
                            194 	.globl _read_memory
                            195 	.globl _write_memory
                            196 	.globl _set_pa
                            197 	.globl _read_pa
                            198 	.globl _read_objflags
                            199 	.globl _gapos_in_gat
                            200 	.globl _write_delay_record
                            201 	.globl _restart_prot
                            202 	.globl _send_cyclic
                            203 	.globl _operation
                            204 	.globl _switch_dim
                            205 	.globl _schalten
                            206 	.globl _pin_function
                            207 	.globl _debounce
                            208 	.globl _eis1
                            209 	.globl _delay_timer
                            210 	.globl _restart_app
                            211 ;--------------------------------------------------------
                            212 ; special function registers
                            213 ;--------------------------------------------------------
                            214 	.area RSEG    (DATA)
                    0080    215 _P0	=	0x0080
                    0090    216 _P1	=	0x0090
                    00B0    217 _P3	=	0x00b0
                    00D0    218 _PSW	=	0x00d0
                    00E0    219 _ACC	=	0x00e0
                    00F0    220 _B	=	0x00f0
                    0081    221 _SP	=	0x0081
                    0082    222 _DPL	=	0x0082
                    0083    223 _DPH	=	0x0083
                    0087    224 _PCON	=	0x0087
                    0088    225 _TCON	=	0x0088
                    0089    226 _TMOD	=	0x0089
                    008A    227 _TL0	=	0x008a
                    008B    228 _TL1	=	0x008b
                    008C    229 _TH0	=	0x008c
                    008D    230 _TH1	=	0x008d
                    00A8    231 _IEN0	=	0x00a8
                    00B8    232 _IP0	=	0x00b8
                    0098    233 _SCON	=	0x0098
                    0099    234 _SBUF	=	0x0099
                    00A2    235 _AUXR1	=	0x00a2
                    00A9    236 _SADDR	=	0x00a9
                    00B9    237 _SADEN	=	0x00b9
                    00BE    238 _BRGR0	=	0x00be
                    00BF    239 _BRGR1	=	0x00bf
                    00BD    240 _BRGCON	=	0x00bd
                    00AC    241 _CMP1	=	0x00ac
                    00AD    242 _CMP2	=	0x00ad
                    0095    243 _DIVM	=	0x0095
                    00E7    244 _FMADRH	=	0x00e7
                    00E6    245 _FMADRL	=	0x00e6
                    00E4    246 _FMCON	=	0x00e4
                    00E5    247 _FMDATA	=	0x00e5
                    00DB    248 _I2ADR	=	0x00db
                    00D8    249 _I2CON	=	0x00d8
                    00DA    250 _I2DAT	=	0x00da
                    00DD    251 _I2SCLH	=	0x00dd
                    00DC    252 _I2SCLL	=	0x00dc
                    00D9    253 _I2STAT	=	0x00d9
                    00F8    254 _IP1	=	0x00f8
                    00F7    255 _IP1H	=	0x00f7
                    0094    256 _KBCON	=	0x0094
                    0086    257 _KBMASK	=	0x0086
                    0093    258 _KBPATN	=	0x0093
                    0084    259 _P0M1	=	0x0084
                    0085    260 _P0M2	=	0x0085
                    0091    261 _P1M1	=	0x0091
                    0092    262 _P1M2	=	0x0092
                    00B1    263 _P3M1	=	0x00b1
                    00B2    264 _P3M2	=	0x00b2
                    00B5    265 _PCONA	=	0x00b5
                    00F6    266 _PT0AD	=	0x00f6
                    00DF    267 _RSTSRC	=	0x00df
                    00D1    268 _RTCCON	=	0x00d1
                    00D2    269 _RTCH	=	0x00d2
                    00D3    270 _RTCL	=	0x00d3
                    00BA    271 _SSTAT	=	0x00ba
                    008F    272 _TAMOD	=	0x008f
                    0096    273 _TRIM	=	0x0096
                    00A7    274 _WDCON	=	0x00a7
                    00C1    275 _WDL	=	0x00c1
                    00C2    276 _WFEED1	=	0x00c2
                    00C3    277 _WFEED2	=	0x00c3
                    00B7    278 _IP0H	=	0x00b7
                    00E8    279 _IEN1	=	0x00e8
                            280 ;--------------------------------------------------------
                            281 ; special function bits
                            282 ;--------------------------------------------------------
                            283 	.area RSEG    (DATA)
                    00D0    284 _PSW_0	=	0x00d0
                    00D1    285 _PSW_1	=	0x00d1
                    00D2    286 _PSW_2	=	0x00d2
                    00D3    287 _PSW_3	=	0x00d3
                    00D4    288 _PSW_4	=	0x00d4
                    00D5    289 _PSW_5	=	0x00d5
                    00D6    290 _PSW_6	=	0x00d6
                    00D7    291 _PSW_7	=	0x00d7
                    00D0    292 _P	=	0x00d0
                    00D1    293 _F1	=	0x00d1
                    00D2    294 _OV	=	0x00d2
                    00D3    295 _RS0	=	0x00d3
                    00D4    296 _RS1	=	0x00d4
                    00D5    297 _F0	=	0x00d5
                    00D6    298 _AC	=	0x00d6
                    00D7    299 _CY	=	0x00d7
                    008F    300 _TCON_7	=	0x008f
                    008E    301 _TCON_6	=	0x008e
                    008D    302 _TCON_5	=	0x008d
                    008C    303 _TCON_4	=	0x008c
                    008B    304 _TCON_3	=	0x008b
                    008A    305 _TCON_2	=	0x008a
                    0089    306 _TCON_1	=	0x0089
                    0088    307 _TCON_0	=	0x0088
                    00AF    308 _IEN0_7	=	0x00af
                    00AE    309 _IEN0_6	=	0x00ae
                    00AD    310 _IEN0_5	=	0x00ad
                    00AC    311 _IEN0_4	=	0x00ac
                    00AB    312 _IEN0_3	=	0x00ab
                    00AA    313 _IEN0_2	=	0x00aa
                    00A9    314 _IEN0_1	=	0x00a9
                    00A8    315 _IEN0_0	=	0x00a8
                    00EA    316 _IEN1_2	=	0x00ea
                    00E9    317 _IEN1_1	=	0x00e9
                    00E8    318 _IEN1_0	=	0x00e8
                    00FE    319 _IP1_6	=	0x00fe
                    00FA    320 _IP1_2	=	0x00fa
                    00F9    321 _IP1_1	=	0x00f9
                    00F8    322 _IP1_0	=	0x00f8
                    00BE    323 _IP0_6	=	0x00be
                    00BD    324 _IP0_5	=	0x00bd
                    00BC    325 _IP0_4	=	0x00bc
                    00BB    326 _IP0_3	=	0x00bb
                    00BA    327 _IP0_2	=	0x00ba
                    00B9    328 _IP0_1	=	0x00b9
                    00B8    329 _IP0_0	=	0x00b8
                    0098    330 _SCON_0	=	0x0098
                    0099    331 _SCON_1	=	0x0099
                    009A    332 _SCON_2	=	0x009a
                    009B    333 _SCON_3	=	0x009b
                    009C    334 _SCON_4	=	0x009c
                    009D    335 _SCON_5	=	0x009d
                    009E    336 _SCON_6	=	0x009e
                    009F    337 _SCON_7	=	0x009f
                    00DE    338 _I2CON_6	=	0x00de
                    00DD    339 _I2CON_5	=	0x00dd
                    00DC    340 _I2CON_4	=	0x00dc
                    00DB    341 _I2CON_3	=	0x00db
                    00DA    342 _I2CON_2	=	0x00da
                    00D8    343 _I2CON_0	=	0x00d8
                    0080    344 _P0_0	=	0x0080
                    0081    345 _P0_1	=	0x0081
                    0082    346 _P0_2	=	0x0082
                    0083    347 _P0_3	=	0x0083
                    0084    348 _P0_4	=	0x0084
                    0085    349 _P0_5	=	0x0085
                    0086    350 _P0_6	=	0x0086
                    0087    351 _P0_7	=	0x0087
                    0090    352 _P1_0	=	0x0090
                    0091    353 _P1_1	=	0x0091
                    0092    354 _P1_2	=	0x0092
                    0093    355 _P1_3	=	0x0093
                    0094    356 _P1_4	=	0x0094
                    0095    357 _P1_5	=	0x0095
                    0096    358 _P1_6	=	0x0096
                    0097    359 _P1_7	=	0x0097
                    00B0    360 _P3_0	=	0x00b0
                    00B1    361 _P3_1	=	0x00b1
                            362 ;--------------------------------------------------------
                            363 ; overlayable register banks
                            364 ;--------------------------------------------------------
                            365 	.area REG_BANK_0	(REL,OVR,DATA)
   0000                     366 	.ds 8
                            367 ;--------------------------------------------------------
                            368 ; overlayable bit register bank
                            369 ;--------------------------------------------------------
                            370 	.area BIT_BANK	(REL,OVR,DATA)
   0000                     371 bits:
   0000                     372 	.ds 1
                    8000    373 	b0 = bits[0]
                    8100    374 	b1 = bits[1]
                    8200    375 	b2 = bits[2]
                    8300    376 	b3 = bits[3]
                    8400    377 	b4 = bits[4]
                    8500    378 	b5 = bits[5]
                    8600    379 	b6 = bits[6]
                    8700    380 	b7 = bits[7]
                            381 ;--------------------------------------------------------
                            382 ; internal ram data
                            383 ;--------------------------------------------------------
                            384 	.area DSEG    (DATA)
   0000                     385 _telegramm::
   0000                     386 	.ds 23
   0017                     387 _telpos::
   0017                     388 	.ds 1
   0018                     389 _cs::
   0018                     390 	.ds 1
   0019                     391 _pal::
   0019                     392 	.ds 1
   001A                     393 _pah::
   001A                     394 	.ds 1
   001B                     395 _gacount::
   001B                     396 	.ds 1
   001C                     397 _conh::
   001C                     398 	.ds 1
   001D                     399 _conl::
   001D                     400 	.ds 1
   001E                     401 _pcount::
   001E                     402 	.ds 1
   001F                     403 _portbuffer::
   001F                     404 	.ds 1
   0020                     405 _p0h::
   0020                     406 	.ds 1
   0021                     407 _objstate::
   0021                     408 	.ds 2
   0023                     409 _timer::
   0023                     410 	.ds 4
   0027                     411 _pdir::
   0027                     412 	.ds 1
                            413 ;--------------------------------------------------------
                            414 ; overlayable items in internal ram 
                            415 ;--------------------------------------------------------
                            416 	.area OSEG    (OVR,DATA)
                            417 ;--------------------------------------------------------
                            418 ; Stack segment in internal ram 
                            419 ;--------------------------------------------------------
                            420 	.area	SSEG	(DATA)
   0000                     421 __start__stack:
   0000                     422 	.ds	1
                            423 
                            424 ;--------------------------------------------------------
                            425 ; indirectly addressable internal ram data
                            426 ;--------------------------------------------------------
                            427 	.area ISEG    (DATA)
                            428 ;--------------------------------------------------------
                            429 ; bit data
                            430 ;--------------------------------------------------------
                            431 	.area BSEG    (BIT)
   0000                     432 _parity_ok::
   0000                     433 	.ds 1
   0001                     434 _progmode::
   0001                     435 	.ds 1
   0002                     436 _connected::
   0002                     437 	.ds 1
                            438 ;--------------------------------------------------------
                            439 ; paged external ram data
                            440 ;--------------------------------------------------------
                            441 	.area PSEG    (PAG,XDATA)
                            442 ;--------------------------------------------------------
                            443 ; external ram data
                            444 ;--------------------------------------------------------
                            445 	.area XSEG    (XDATA)
                            446 ;--------------------------------------------------------
                            447 ; external initialized ram data
                            448 ;--------------------------------------------------------
                            449 	.area XISEG   (XDATA)
                            450 	.area HOME    (CODE)
                            451 	.area GSINIT0 (CODE)
                            452 	.area GSINIT1 (CODE)
                            453 	.area GSINIT2 (CODE)
                            454 	.area GSINIT3 (CODE)
                            455 	.area GSINIT4 (CODE)
                            456 	.area GSINIT5 (CODE)
                            457 	.area GSINIT  (CODE)
                            458 	.area GSFINAL (CODE)
                            459 	.area CSEG    (CODE)
                            460 ;--------------------------------------------------------
                            461 ; interrupt vector 
                            462 ;--------------------------------------------------------
                            463 	.area HOME    (CODE)
   0000                     464 __interrupt_vect:
   0000 02s00r00            465 	ljmp	__sdcc_gsinit_startup
   0003 32                  466 	reti
   0004                     467 	.ds	7
   000B 32                  468 	reti
   000C                     469 	.ds	7
   0013 02s00rE3            470 	ljmp	_ext_int0
   0016                     471 	.ds	5
   001B 02s02rD1            472 	ljmp	_timer1
                            473 ;--------------------------------------------------------
                            474 ; global & static initialisations
                            475 ;--------------------------------------------------------
                            476 	.area HOME    (CODE)
                            477 	.area GSINIT  (CODE)
                            478 	.area GSFINAL (CODE)
                            479 	.area GSINIT  (CODE)
                            480 	.globl __sdcc_gsinit_startup
                            481 	.globl __sdcc_program_startup
                            482 	.globl __start__stack
                            483 	.globl __mcs51_genXINIT
                            484 	.globl __mcs51_genXRAMCLEAR
                            485 	.globl __mcs51_genRAMCLEAR
                            486 	.area GSFINAL (CODE)
   0000 02s00r00            487 	ljmp	__sdcc_program_startup
                            488 ;--------------------------------------------------------
                            489 ; Home
                            490 ;--------------------------------------------------------
                            491 	.area HOME    (CODE)
                            492 	.area CSEG    (CODE)
   0000                     493 __sdcc_program_startup:
   0000 12s16r6F            494 	lcall	_main
                            495 ;	return from main will lock up
   0003 80 FE               496 	sjmp .
                            497 ;--------------------------------------------------------
                            498 ; code
                            499 ;--------------------------------------------------------
                            500 	.area CSEG    (CODE)
                            501 ;------------------------------------------------------------
                            502 ;Allocation info for local variables in function 'get_byte'
                            503 ;------------------------------------------------------------
                            504 ;rbit                      Allocated to registers b1 
                            505 ;parity                    Allocated to registers b1 
                            506 ;ph                        Allocated to registers b0 
                            507 ;n                         Allocated to registers r3 
                            508 ;m                         Allocated to registers r2 
                            509 ;fbb                       Allocated to registers r2 
                            510 ;fbbh                      Allocated to registers r3 
                            511 ;------------------------------------------------------------
                            512 ;	s:/elektronik/eib/c/fb_common/fb_hal_lpc.c:10: unsigned char get_byte(void)
                            513 ;	-----------------------------------------
                            514 ;	 function get_byte
                            515 ;	-----------------------------------------
   0005                     516 _get_byte:
                    0002    517 	ar2 = 0x02
                    0003    518 	ar3 = 0x03
                    0004    519 	ar4 = 0x04
                    0005    520 	ar5 = 0x05
                    0006    521 	ar6 = 0x06
                    0007    522 	ar7 = 0x07
                    0000    523 	ar0 = 0x00
                    0001    524 	ar1 = 0x01
                            525 ;	s:/elektronik/eib/c/fb_common/fb_hal_lpc.c:15: EX1=0;				// Interrupt 1 sperren
                            526 ;	genAssign
   0005 C2 AA               527 	clr	_IEN0_2
                            528 ;	s:/elektronik/eib/c/fb_common/fb_hal_lpc.c:16: ET1=0;				// Interrupt von Timer 1 sperren
                            529 ;	genAssign
   0007 C2 AB               530 	clr	_IEN0_3
                            531 ;	s:/elektronik/eib/c/fb_common/fb_hal_lpc.c:18: set_timer1(380);			// Timer setzen um 1. Bit zu treffen (320-440)
                            532 ;	genCall
                            533 ;	Peephole 182.b	used 16 bit load of dptr
   0009 90 01 7C            534 	mov	dptr,#0x017C
   000C 12s02r3D            535 	lcall	_set_timer1
                            536 ;	s:/elektronik/eib/c/fb_common/fb_hal_lpc.c:20: ph=0;					// Paritybit wird aus empfangenem Byte berechnet
                            537 ;	genAssign
   000F C2*00               538 	clr	b0
                            539 ;	s:/elektronik/eib/c/fb_common/fb_hal_lpc.c:21: parity_ok=0;
                            540 ;	genAssign
   0011 C2*00               541 	clr	_parity_ok
                            542 ;	s:/elektronik/eib/c/fb_common/fb_hal_lpc.c:22: while(!TF1);				// warten auf Timer 1				
   0013                     543 00101$:
                            544 ;	genIfx
                            545 ;	genIfxJump
                            546 ;	Peephole 108.d	removed ljmp by inverse jump logic
   0013 30 8F FD            547 	jnb	_TCON_7,00101$
                            548 ;	Peephole 300	removed redundant label 00152$
                            549 ;	s:/elektronik/eib/c/fb_common/fb_hal_lpc.c:23: set_timer1(360);			// Timer 1 neu setzen für 2.Bit (300-420)
                            550 ;	genCall
                            551 ;	Peephole 182.b	used 16 bit load of dptr
   0016 90 01 68            552 	mov	dptr,#0x0168
   0019 C0*00               553 	push	bits
   001B 12s02r3D            554 	lcall	_set_timer1
   001E D0*00               555 	pop	bits
                            556 ;	s:/elektronik/eib/c/fb_common/fb_hal_lpc.c:24: rbit=FBINC;				// 1.Bit einlesen
                            557 ;	genAssign
   0020 A2 94               558 	mov	c,_P1_4
   0022 92*00               559 	mov	b1,c
                            560 ;	s:/elektronik/eib/c/fb_common/fb_hal_lpc.c:25: for(m=0;m<5;m++)
                            561 ;	genAssign
   0024 7A 05               562 	mov	r2,#0x05
   0026                     563 00118$:
                            564 ;	s:/elektronik/eib/c/fb_common/fb_hal_lpc.c:27: rbit&=FBINC;			// zur Steigerung der Fehlertoleranz mehrfach lesen
                            565 ;	genAnd
   0026 A2 94               566 	mov	c,_P1_4
   0028 82*00               567 	anl	c,b1
   002A 92*00               568 	mov	b1,c
                            569 ;	genDjnz
                            570 ;	Peephole 112.b	changed ljmp to sjmp
                            571 ;	Peephole 205	optimized misc jump sequence
   002C DA F8               572 	djnz	r2,00118$
                            573 ;	Peephole 300	removed redundant label 00153$
                            574 ;	Peephole 300	removed redundant label 00154$
                            575 ;	s:/elektronik/eib/c/fb_common/fb_hal_lpc.c:25: for(m=0;m<5;m++)
                            576 ;	s:/elektronik/eib/c/fb_common/fb_hal_lpc.c:29: fbb=rbit;
                            577 ;	genAssign
   002E E4                  578 	clr	a
   002F A2*00               579 	mov	c,b1
   0031 33                  580 	rlc	a
   0032 FA                  581 	mov	r2,a
                            582 ;	genAssign
                            583 ;	s:/elektronik/eib/c/fb_common/fb_hal_lpc.c:30: if(rbit) ph=!ph;			// Paritybit berechnen
                            584 ;	genIfx
                            585 ;	genIfxJump
                            586 ;	Peephole 108.d	removed ljmp by inverse jump logic
   0033 30*00 02            587 	jnb	b1,00142$
                            588 ;	Peephole 300	removed redundant label 00155$
                            589 ;	genNot
   0036 B2*00               590 	cpl	b0
                            591 ;	s:/elektronik/eib/c/fb_common/fb_hal_lpc.c:32: for(n=0;n<7;n++)			// 2. bis 8. Bit
   0038                     592 00142$:
                            593 ;	genAssign
   0038 7B 00               594 	mov	r3,#0x00
   003A                     595 00122$:
                            596 ;	genCmpLt
                            597 ;	genCmp
   003A BB 07 00            598 	cjne	r3,#0x07,00156$
   003D                     599 00156$:
                            600 ;	genIfxJump
                            601 ;	Peephole 108.a	removed ljmp by inverse jump logic
   003D 50 35               602 	jnc	00111$
                            603 ;	Peephole 300	removed redundant label 00157$
                            604 ;	s:/elektronik/eib/c/fb_common/fb_hal_lpc.c:34: fbb=fbb<<1;
                            605 ;	genLeftShift
                            606 ;	genLeftShiftLiteral
                            607 ;	genlshOne
   003F EA                  608 	mov	a,r2
                            609 ;	Peephole 254	optimized left shift
   0040 2A                  610 	add	a,r2
   0041 FA                  611 	mov	r2,a
                            612 ;	s:/elektronik/eib/c/fb_common/fb_hal_lpc.c:35: while(!TF1);
   0042                     613 00106$:
                            614 ;	genIfx
                            615 ;	genIfxJump
                            616 ;	Peephole 108.d	removed ljmp by inverse jump logic
   0042 30 8F FD            617 	jnb	_TCON_7,00106$
                            618 ;	Peephole 300	removed redundant label 00158$
                            619 ;	s:/elektronik/eib/c/fb_common/fb_hal_lpc.c:36: set_timer1(350);			// Timer 1 setzen für Position 2.-9.Bit (342-359)
                            620 ;	genCall
                            621 ;	Peephole 182.b	used 16 bit load of dptr
   0045 90 01 5E            622 	mov	dptr,#0x015E
   0048 C0 02               623 	push	ar2
   004A C0 03               624 	push	ar3
   004C C0*00               625 	push	bits
   004E 12s02r3D            626 	lcall	_set_timer1
   0051 D0*00               627 	pop	bits
   0053 D0 03               628 	pop	ar3
   0055 D0 02               629 	pop	ar2
                            630 ;	s:/elektronik/eib/c/fb_common/fb_hal_lpc.c:37: rbit=FBINC;
                            631 ;	genAssign
   0057 A2 94               632 	mov	c,_P1_4
   0059 92*00               633 	mov	b1,c
                            634 ;	s:/elektronik/eib/c/fb_common/fb_hal_lpc.c:38: for(m=0;m<5;m++)
                            635 ;	genAssign
   005B 7C 05               636 	mov	r4,#0x05
   005D                     637 00121$:
                            638 ;	s:/elektronik/eib/c/fb_common/fb_hal_lpc.c:40: rbit&=FBINC;			// zur Steigerung der Fehlertoleranz mehrfach lesen
                            639 ;	genAnd
   005D A2 94               640 	mov	c,_P1_4
   005F 82*00               641 	anl	c,b1
   0061 92*00               642 	mov	b1,c
                            643 ;	genDjnz
                            644 ;	Peephole 112.b	changed ljmp to sjmp
                            645 ;	Peephole 205	optimized misc jump sequence
   0063 DC F8               646 	djnz	r4,00121$
                            647 ;	Peephole 300	removed redundant label 00159$
                            648 ;	Peephole 300	removed redundant label 00160$
                            649 ;	s:/elektronik/eib/c/fb_common/fb_hal_lpc.c:38: for(m=0;m<5;m++)
                            650 ;	s:/elektronik/eib/c/fb_common/fb_hal_lpc.c:42: fbb=fbb+rbit;
                            651 ;	genAssign
   0065 E4                  652 	clr	a
   0066 A2*00               653 	mov	c,b1
   0068 33                  654 	rlc	a
                            655 ;	genPlus
   0069 FC                  656 	mov	r4,a
                            657 ;	Peephole 177.b	removed redundant mov
                            658 ;	Peephole 236.a	used r2 instead of ar2
   006A 2A                  659 	add	a,r2
   006B FA                  660 	mov	r2,a
                            661 ;	s:/elektronik/eib/c/fb_common/fb_hal_lpc.c:43: if(rbit) ph=!ph;			// Paritybit berechnen
                            662 ;	genIfx
                            663 ;	genIfxJump
                            664 ;	Peephole 108.d	removed ljmp by inverse jump logic
   006C 30*00 02            665 	jnb	b1,00124$
                            666 ;	Peephole 300	removed redundant label 00161$
                            667 ;	genNot
   006F B2*00               668 	cpl	b0
   0071                     669 00124$:
                            670 ;	s:/elektronik/eib/c/fb_common/fb_hal_lpc.c:32: for(n=0;n<7;n++)			// 2. bis 8. Bit
                            671 ;	genPlus
                            672 ;     genPlusIncr
   0071 0B                  673 	inc	r3
                            674 ;	s:/elektronik/eib/c/fb_common/fb_hal_lpc.c:45: while(!TF1);				
                            675 ;	Peephole 112.b	changed ljmp to sjmp
   0072 80 C6               676 	sjmp	00122$
   0074                     677 00111$:
                            678 ;	genIfx
                            679 ;	genIfxJump
                            680 ;	Peephole 108.d	removed ljmp by inverse jump logic
   0074 30 8F FD            681 	jnb	_TCON_7,00111$
                            682 ;	Peephole 300	removed redundant label 00162$
                            683 ;	s:/elektronik/eib/c/fb_common/fb_hal_lpc.c:46: TR1=0;
                            684 ;	genAssign
   0077 C2 8E               685 	clr	_TCON_6
                            686 ;	s:/elektronik/eib/c/fb_common/fb_hal_lpc.c:47: parity=FBINC;				// Paritybit lesen
                            687 ;	genAssign
   0079 A2 94               688 	mov	c,_P1_4
   007B 92*00               689 	mov	b1,c
                            690 ;	s:/elektronik/eib/c/fb_common/fb_hal_lpc.c:48: for(m=0;m<5;m++)
                            691 ;	genAssign
   007D 7B 05               692 	mov	r3,#0x05
   007F                     693 00128$:
                            694 ;	s:/elektronik/eib/c/fb_common/fb_hal_lpc.c:50: parity&=FBINC;
                            695 ;	genAnd
   007F A2 94               696 	mov	c,_P1_4
   0081 82*00               697 	anl	c,b1
   0083 92*00               698 	mov	b1,c
                            699 ;	genDjnz
                            700 ;	Peephole 112.b	changed ljmp to sjmp
                            701 ;	Peephole 205	optimized misc jump sequence
   0085 DB F8               702 	djnz	r3,00128$
                            703 ;	Peephole 300	removed redundant label 00163$
                            704 ;	Peephole 300	removed redundant label 00164$
                            705 ;	s:/elektronik/eib/c/fb_common/fb_hal_lpc.c:48: for(m=0;m<5;m++)
                            706 ;	s:/elektronik/eib/c/fb_common/fb_hal_lpc.c:53: fbbh=(fbb&0x80)>>7;			// Byte bitweise vertauschen, da LSB zuerst übertragen wurde
                            707 ;	genAnd
   0087 74 80               708 	mov	a,#0x80
   0089 5A                  709 	anl	a,r2
                            710 ;	genRightShift
                            711 ;	genRightShiftLiteral
                            712 ;	genrshOne
   008A FB                  713 	mov	r3,a
                            714 ;	Peephole 105	removed redundant mov
   008B 23                  715 	rl	a
   008C 54 01               716 	anl	a,#0x01
   008E FB                  717 	mov	r3,a
                            718 ;	s:/elektronik/eib/c/fb_common/fb_hal_lpc.c:54: fbbh=fbbh+((fbb&0x40)>>5);
                            719 ;	genAnd
   008F 74 40               720 	mov	a,#0x40
   0091 5A                  721 	anl	a,r2
                            722 ;	genRightShift
                            723 ;	genRightShiftLiteral
                            724 ;	genrshOne
   0092 FC                  725 	mov	r4,a
                            726 ;	Peephole 105	removed redundant mov
   0093 C4                  727 	swap	a
   0094 03                  728 	rr	a
   0095 54 07               729 	anl	a,#0x07
                            730 ;	genPlus
   0097 FC                  731 	mov	r4,a
                            732 ;	Peephole 177.b	removed redundant mov
                            733 ;	Peephole 236.a	used r3 instead of ar3
   0098 2B                  734 	add	a,r3
   0099 FB                  735 	mov	r3,a
                            736 ;	s:/elektronik/eib/c/fb_common/fb_hal_lpc.c:55: fbbh=fbbh+((fbb&0x20)>>3);
                            737 ;	genAnd
   009A 74 20               738 	mov	a,#0x20
   009C 5A                  739 	anl	a,r2
                            740 ;	genRightShift
                            741 ;	genRightShiftLiteral
                            742 ;	genrshOne
   009D FC                  743 	mov	r4,a
                            744 ;	Peephole 105	removed redundant mov
   009E C4                  745 	swap	a
   009F 23                  746 	rl	a
   00A0 54 1F               747 	anl	a,#0x1f
                            748 ;	genPlus
   00A2 FC                  749 	mov	r4,a
                            750 ;	Peephole 177.b	removed redundant mov
                            751 ;	Peephole 236.a	used r3 instead of ar3
   00A3 2B                  752 	add	a,r3
   00A4 FB                  753 	mov	r3,a
                            754 ;	s:/elektronik/eib/c/fb_common/fb_hal_lpc.c:56: fbbh=fbbh+((fbb&0x10)>>1);
                            755 ;	genAnd
   00A5 74 10               756 	mov	a,#0x10
   00A7 5A                  757 	anl	a,r2
                            758 ;	genRightShift
                            759 ;	genRightShiftLiteral
                            760 ;	genrshOne
   00A8 FC                  761 	mov	r4,a
                            762 ;	Peephole 105	removed redundant mov
   00A9 C3                  763 	clr	c
   00AA 13                  764 	rrc	a
                            765 ;	genPlus
   00AB FC                  766 	mov	r4,a
                            767 ;	Peephole 177.b	removed redundant mov
                            768 ;	Peephole 236.a	used r3 instead of ar3
   00AC 2B                  769 	add	a,r3
   00AD FB                  770 	mov	r3,a
                            771 ;	s:/elektronik/eib/c/fb_common/fb_hal_lpc.c:57: fbbh=fbbh+((fbb&0x08)<<1);
                            772 ;	genAnd
   00AE 74 08               773 	mov	a,#0x08
   00B0 5A                  774 	anl	a,r2
                            775 ;	genLeftShift
                            776 ;	genLeftShiftLiteral
                            777 ;	genlshOne
                            778 ;	Peephole 105	removed redundant mov
                            779 ;	genPlus
                            780 ;	Peephole 204	removed redundant mov
   00B1 25 E0               781 	add	a,acc
   00B3 FC                  782 	mov	r4,a
                            783 ;	Peephole 177.b	removed redundant mov
                            784 ;	Peephole 236.a	used r3 instead of ar3
   00B4 2B                  785 	add	a,r3
   00B5 FB                  786 	mov	r3,a
                            787 ;	s:/elektronik/eib/c/fb_common/fb_hal_lpc.c:58: fbbh=fbbh+((fbb&0x04)<<3);
                            788 ;	genAnd
   00B6 74 04               789 	mov	a,#0x04
   00B8 5A                  790 	anl	a,r2
                            791 ;	genLeftShift
                            792 ;	genLeftShiftLiteral
                            793 ;	genlshOne
   00B9 FC                  794 	mov	r4,a
                            795 ;	Peephole 105	removed redundant mov
   00BA C4                  796 	swap	a
   00BB 03                  797 	rr	a
   00BC 54 F8               798 	anl	a,#0xf8
                            799 ;	genPlus
   00BE FC                  800 	mov	r4,a
                            801 ;	Peephole 177.b	removed redundant mov
                            802 ;	Peephole 236.a	used r3 instead of ar3
   00BF 2B                  803 	add	a,r3
   00C0 FB                  804 	mov	r3,a
                            805 ;	s:/elektronik/eib/c/fb_common/fb_hal_lpc.c:59: fbbh=fbbh+((fbb&0x02)<<5);
                            806 ;	genAnd
   00C1 74 02               807 	mov	a,#0x02
   00C3 5A                  808 	anl	a,r2
                            809 ;	genLeftShift
                            810 ;	genLeftShiftLiteral
                            811 ;	genlshOne
   00C4 FC                  812 	mov	r4,a
                            813 ;	Peephole 105	removed redundant mov
   00C5 C4                  814 	swap	a
   00C6 23                  815 	rl	a
   00C7 54 E0               816 	anl	a,#0xe0
                            817 ;	genPlus
   00C9 FC                  818 	mov	r4,a
                            819 ;	Peephole 177.b	removed redundant mov
                            820 ;	Peephole 236.a	used r3 instead of ar3
   00CA 2B                  821 	add	a,r3
   00CB FB                  822 	mov	r3,a
                            823 ;	s:/elektronik/eib/c/fb_common/fb_hal_lpc.c:60: fbbh=fbbh+((fbb&0x01)<<7);
                            824 ;	genAnd
   00CC 53 02 01            825 	anl	ar2,#0x01
                            826 ;	genLeftShift
                            827 ;	genLeftShiftLiteral
                            828 ;	genlshOne
   00CF EA                  829 	mov	a,r2
   00D0 03                  830 	rr	a
   00D1 54 80               831 	anl	a,#0x80
                            832 ;	genPlus
   00D3 FA                  833 	mov	r2,a
                            834 ;	Peephole 177.b	removed redundant mov
                            835 ;	Peephole 236.a	used r3 instead of ar3
   00D4 2B                  836 	add	a,r3
   00D5 FB                  837 	mov	r3,a
                            838 ;	s:/elektronik/eib/c/fb_common/fb_hal_lpc.c:62: if(parity==ph) parity_ok=1;
                            839 ;	genCmpEq
   00D6 A2*00               840 	mov	c,b1
   00D8 20*00 01            841 	jb	b0,00165$
   00DB B3                  842 	cpl	c
   00DC                     843 00165$:
                            844 ;	Peephole 108.a	removed ljmp by inverse jump logic
   00DC 50 02               845 	jnc	00115$
                            846 ;	Peephole 300	removed redundant label 00166$
                            847 ;	genAssign
   00DE D2*00               848 	setb	_parity_ok
   00E0                     849 00115$:
                            850 ;	s:/elektronik/eib/c/fb_common/fb_hal_lpc.c:64: return fbbh;
                            851 ;	genRet
   00E0 8B 82               852 	mov	dpl,r3
                            853 ;	Peephole 300	removed redundant label 00129$
   00E2 22                  854 	ret
                            855 ;------------------------------------------------------------
                            856 ;Allocation info for local variables in function 'ext_int0'
                            857 ;------------------------------------------------------------
                            858 ;fbbh                      Allocated to registers r2 
                            859 ;------------------------------------------------------------
                            860 ;	s:/elektronik/eib/c/fb_common/fb_hal_lpc.c:70: void ext_int0(void) interrupt 2		// Byte vom Bus empfangen, wird durch negative Flanke am INT1 Eingang getriggert
                            861 ;	-----------------------------------------
                            862 ;	 function ext_int0
                            863 ;	-----------------------------------------
   00E3                     864 _ext_int0:
   00E3 C0 E0               865 	push	acc
   00E5 C0 F0               866 	push	b
   00E7 C0 82               867 	push	dpl
   00E9 C0 83               868 	push	dph
   00EB C0 02               869 	push	(0+2)
   00ED C0 03               870 	push	(0+3)
   00EF C0 04               871 	push	(0+4)
   00F1 C0 05               872 	push	(0+5)
   00F3 C0 06               873 	push	(0+6)
   00F5 C0 07               874 	push	(0+7)
   00F7 C0 00               875 	push	(0+0)
   00F9 C0 01               876 	push	(0+1)
   00FB C0*00               877 	push	bits
   00FD C0 D0               878 	push	psw
   00FF 75 D0 00            879 	mov	psw,#0x00
                            880 ;	s:/elektronik/eib/c/fb_common/fb_hal_lpc.c:76: TR1=0;
                            881 ;	genAssign
   0102 C2 8E               882 	clr	_TCON_6
                            883 ;	s:/elektronik/eib/c/fb_common/fb_hal_lpc.c:77: EX1=0;				// Interrupt 1 sperren
                            884 ;	genAssign
   0104 C2 AA               885 	clr	_IEN0_2
                            886 ;	s:/elektronik/eib/c/fb_common/fb_hal_lpc.c:78: ET1=0;				// Interrupt von Timer 1 sperren
                            887 ;	genAssign
   0106 C2 AB               888 	clr	_IEN0_3
                            889 ;	s:/elektronik/eib/c/fb_common/fb_hal_lpc.c:80: fbbh=get_byte();			// Byte vom Bus empfangen
                            890 ;	genCall
   0108 12s00r05            891 	lcall	_get_byte
   010B AA 82               892 	mov	r2,dpl
                            893 ;	genAssign
                            894 ;	s:/elektronik/eib/c/fb_common/fb_hal_lpc.c:81: delay(200);
                            895 ;	genCall
                            896 ;	Peephole 182.b	used 16 bit load of dptr
   010D 90 00 C8            897 	mov	dptr,#0x00C8
   0110 C0 02               898 	push	ar2
   0112 12s02r20            899 	lcall	_delay
   0115 D0 02               900 	pop	ar2
                            901 ;	s:/elektronik/eib/c/fb_common/fb_hal_lpc.c:83: if(parity_ok)				// wenn Parity OK
                            902 ;	genIfx
                            903 ;	genIfxJump
                            904 ;	Peephole 108.d	removed ljmp by inverse jump logic
   0117 30*00 12            905 	jnb	_parity_ok,00104$
                            906 ;	Peephole 300	removed redundant label 00109$
                            907 ;	s:/elektronik/eib/c/fb_common/fb_hal_lpc.c:85: telegramm[telpos]=fbbh; 
                            908 ;	genPlus
   011A E5*17               909 	mov	a,_telpos
   011C 24r00               910 	add	a,#_telegramm
                            911 ;	genPointerSet
                            912 ;	genNearPointerSet
                            913 ;	Peephole 239	used a instead of acc
   011E F8                  914 	mov	r0,a
   011F A6 02               915 	mov	@r0,ar2
                            916 ;	s:/elektronik/eib/c/fb_common/fb_hal_lpc.c:86: if(telpos==0) cs=0;
                            917 ;	genIfx
   0121 E5*17               918 	mov	a,_telpos
                            919 ;	genIfxJump
                            920 ;	Peephole 108.b	removed ljmp by inverse jump logic
                            921 ;	genAssign
   0123 70 02               922 	jnz	00102$
                            923 ;	Peephole 300	removed redundant label 00110$
                            924 ;	Peephole 256.c	loading _cs with zero from a
   0125 F5*18               925 	mov	_cs,a
   0127                     926 00102$:
                            927 ;	s:/elektronik/eib/c/fb_common/fb_hal_lpc.c:87: cs^=fbbh;				// Checksum durch EXOR der einzelnen Telegramm-Bytes bilden
                            928 ;	genXor
   0127 EA                  929 	mov	a,r2
   0128 62*18               930 	xrl	_cs,a
                            931 ;	s:/elektronik/eib/c/fb_common/fb_hal_lpc.c:88: telpos++;
                            932 ;	genPlus
                            933 ;     genPlusIncr
   012A 05*17               934 	inc	_telpos
   012C                     935 00104$:
                            936 ;	s:/elektronik/eib/c/fb_common/fb_hal_lpc.c:91: set_timer1(2700);			// Timer 1 starten für Timeout 370us -> signalisiert Telegrammende (1460)
                            937 ;	genCall
                            938 ;	Peephole 182.b	used 16 bit load of dptr
   012C 90 0A 8C            939 	mov	dptr,#0x0A8C
   012F 12s02r3D            940 	lcall	_set_timer1
                            941 ;	s:/elektronik/eib/c/fb_common/fb_hal_lpc.c:93: ET1=1;				// Interrupt für Timer 1 freigeben
                            942 ;	genAssign
   0132 D2 AB               943 	setb	_IEN0_3
                            944 ;	s:/elektronik/eib/c/fb_common/fb_hal_lpc.c:94: IE1=0;				// Interrupt 0 request zurücksetzen
                            945 ;	genAssign
   0134 C2 8B               946 	clr	_TCON_3
                            947 ;	s:/elektronik/eib/c/fb_common/fb_hal_lpc.c:95: EX1=1;				// Interrupt 0 wieder freigeben
                            948 ;	genAssign
   0136 D2 AA               949 	setb	_IEN0_2
                            950 ;	Peephole 300	removed redundant label 00105$
   0138 D0 D0               951 	pop	psw
   013A D0*00               952 	pop	bits
   013C D0 01               953 	pop	(0+1)
   013E D0 00               954 	pop	(0+0)
   0140 D0 07               955 	pop	(0+7)
   0142 D0 06               956 	pop	(0+6)
   0144 D0 05               957 	pop	(0+5)
   0146 D0 04               958 	pop	(0+4)
   0148 D0 03               959 	pop	(0+3)
   014A D0 02               960 	pop	(0+2)
   014C D0 83               961 	pop	dph
   014E D0 82               962 	pop	dpl
   0150 D0 F0               963 	pop	b
   0152 D0 E0               964 	pop	acc
   0154 32                  965 	reti
                            966 ;------------------------------------------------------------
                            967 ;Allocation info for local variables in function 'sendbyte'
                            968 ;------------------------------------------------------------
                            969 ;fbsb                      Allocated to registers r2 
                            970 ;n                         Allocated to registers r3 
                            971 ;m                         Allocated to registers r4 
                            972 ;sendbit                   Allocated to registers b2 
                            973 ;parity                    Allocated to registers b0 
                            974 ;error                     Allocated to registers b1 
                            975 ;------------------------------------------------------------
                            976 ;	s:/elektronik/eib/c/fb_common/fb_hal_lpc.c:99: bit sendbyte(unsigned char fbsb)
                            977 ;	-----------------------------------------
                            978 ;	 function sendbyte
                            979 ;	-----------------------------------------
   0155                     980 _sendbyte:
                            981 ;	genReceive
   0155 AA 82               982 	mov	r2,dpl
                            983 ;	s:/elektronik/eib/c/fb_common/fb_hal_lpc.c:104: parity=1;
                            984 ;	genAssign
   0157 D2*00               985 	setb	b0
                            986 ;	s:/elektronik/eib/c/fb_common/fb_hal_lpc.c:105: error=0;
                            987 ;	genAssign
   0159 C2*00               988 	clr	b1
                            989 ;	s:/elektronik/eib/c/fb_common/fb_hal_lpc.c:107: FBOUTC=1;	// Startbit senden
                            990 ;	genAssign
   015B D2 96               991 	setb	_P1_6
                            992 ;	s:/elektronik/eib/c/fb_common/fb_hal_lpc.c:108: delay(95);	// 35us
                            993 ;	genCall
                            994 ;	Peephole 182.b	used 16 bit load of dptr
   015D 90 00 5F            995 	mov	dptr,#0x005F
   0160 C0 02               996 	push	ar2
   0162 C0*00               997 	push	bits
   0164 12s02r20            998 	lcall	_delay
   0167 D0*00               999 	pop	bits
   0169 D0 02              1000 	pop	ar2
                           1001 ;	s:/elektronik/eib/c/fb_common/fb_hal_lpc.c:109: FBOUTC=0;
                           1002 ;	genAssign
   016B C2 96              1003 	clr	_P1_6
                           1004 ;	s:/elektronik/eib/c/fb_common/fb_hal_lpc.c:111: for(n=0;n<8;n++)		// 8 Datenbits senden
                           1005 ;	genAssign
   016D 7B 00              1006 	mov	r3,#0x00
   016F                    1007 00116$:
                           1008 ;	genCmpLt
                           1009 ;	genCmp
   016F BB 08 00           1010 	cjne	r3,#0x08,00141$
   0172                    1011 00141$:
                           1012 ;	genIfxJump
                           1013 ;	Peephole 112.b	changed ljmp to sjmp
                           1014 ;	Peephole 160.b	removed sjmp by inverse jump logic
   0172 50 5C              1015 	jnc	00119$
                           1016 ;	Peephole 300	removed redundant label 00142$
                           1017 ;	s:/elektronik/eib/c/fb_common/fb_hal_lpc.c:113: set_timer1(215);		// 69us Pause
                           1018 ;	genCall
                           1019 ;	Peephole 182.b	used 16 bit load of dptr
   0174 90 00 D7           1020 	mov	dptr,#0x00D7
   0177 C0 02              1021 	push	ar2
   0179 C0 03              1022 	push	ar3
   017B C0*00              1023 	push	bits
   017D 12s02r3D           1024 	lcall	_set_timer1
   0180 D0*00              1025 	pop	bits
   0182 D0 03              1026 	pop	ar3
   0184 D0 02              1027 	pop	ar2
                           1028 ;	s:/elektronik/eib/c/fb_common/fb_hal_lpc.c:114: if(((fbsb>>n)&0x01)==1) sendbit=0;
                           1029 ;	genRightShift
   0186 8B F0              1030 	mov	b,r3
   0188 05 F0              1031 	inc	b
   018A EA                 1032 	mov	a,r2
   018B 80 02              1033 	sjmp	00144$
   018D                    1034 00143$:
   018D C3                 1035 	clr	c
   018E 13                 1036 	rrc	a
   018F                    1037 00144$:
   018F D5 F0 FB           1038 	djnz	b,00143$
                           1039 ;	genAnd
   0192 54 01              1040 	anl	a,#0x01
   0194 FC                 1041 	mov	r4,a
                           1042 ;	genCmpEq
                           1043 ;	gencjneshort
                           1044 ;	Peephole 112.b	changed ljmp to sjmp
                           1045 ;	Peephole 198.b	optimized misc jump sequence
   0195 BC 01 04           1046 	cjne	r4,#0x01,00102$
                           1047 ;	Peephole 200.b	removed redundant sjmp
                           1048 ;	Peephole 300	removed redundant label 00145$
                           1049 ;	Peephole 300	removed redundant label 00146$
                           1050 ;	genAssign
   0198 C2*00              1051 	clr	b2
                           1052 ;	Peephole 112.b	changed ljmp to sjmp
   019A 80 02              1053 	sjmp	00104$
   019C                    1054 00102$:
                           1055 ;	s:/elektronik/eib/c/fb_common/fb_hal_lpc.c:115: else sendbit=1;
                           1056 ;	genAssign
   019C D2*00              1057 	setb	b2
                           1058 ;	s:/elektronik/eib/c/fb_common/fb_hal_lpc.c:116: while(!TF1);		// Warten bis 69us Pause fretig ist
   019E                    1059 00104$:
                           1060 ;	genIfx
                           1061 ;	genIfxJump
                           1062 ;	Peephole 108.d	removed ljmp by inverse jump logic
   019E 30 8F FD           1063 	jnb	_TCON_7,00104$
                           1064 ;	Peephole 300	removed redundant label 00147$
                           1065 ;	s:/elektronik/eib/c/fb_common/fb_hal_lpc.c:118: FBOUTC=sendbit;		// Bit senden
                           1066 ;	genAssign
   01A1 A2*00              1067 	mov	c,b2
   01A3 92 96              1068 	mov	_P1_6,c
                           1069 ;	s:/elektronik/eib/c/fb_common/fb_hal_lpc.c:120: set_timer1(100);		//35us Haltezeit für Bit 
                           1070 ;	genCall
                           1071 ;	Peephole 182.b	used 16 bit load of dptr
   01A5 90 00 64           1072 	mov	dptr,#0x0064
   01A8 C0 02              1073 	push	ar2
   01AA C0 03              1074 	push	ar3
   01AC C0*00              1075 	push	bits
   01AE 12s02r3D           1076 	lcall	_set_timer1
   01B1 D0*00              1077 	pop	bits
   01B3 D0 03              1078 	pop	ar3
   01B5 D0 02              1079 	pop	ar2
                           1080 ;	s:/elektronik/eib/c/fb_common/fb_hal_lpc.c:122: if(!sendbit)		// wenn logische 1 gesendet wird, auf Kollision prüfen
                           1081 ;	genIfx
                           1082 ;	genIfxJump
                           1083 ;	Peephole 108.e	removed ljmp by inverse jump logic
   01B7 20*00 0B           1084 	jb	b2,00110$
                           1085 ;	Peephole 300	removed redundant label 00148$
                           1086 ;	s:/elektronik/eib/c/fb_common/fb_hal_lpc.c:124: parity=!parity;
                           1087 ;	genNot
   01BA B2*00              1088 	cpl	b0
                           1089 ;	s:/elektronik/eib/c/fb_common/fb_hal_lpc.c:125: for(m=0;m<5;m++)
                           1090 ;	genAssign
   01BC 7C 05              1091 	mov	r4,#0x05
   01BE                    1092 00124$:
                           1093 ;	s:/elektronik/eib/c/fb_common/fb_hal_lpc.c:127: if(!FBINC) error=1;
                           1094 ;	genIfx
                           1095 ;	genIfxJump
                           1096 ;	Peephole 108.e	removed ljmp by inverse jump logic
   01BE 20 94 02           1097 	jb	_P1_4,00108$
                           1098 ;	Peephole 300	removed redundant label 00149$
                           1099 ;	genAssign
   01C1 D2*00              1100 	setb	b1
   01C3                    1101 00108$:
                           1102 ;	genDjnz
                           1103 ;	Peephole 112.b	changed ljmp to sjmp
                           1104 ;	Peephole 205	optimized misc jump sequence
   01C3 DC F9              1105 	djnz	r4,00124$
                           1106 ;	Peephole 300	removed redundant label 00150$
                           1107 ;	Peephole 300	removed redundant label 00151$
                           1108 ;	s:/elektronik/eib/c/fb_common/fb_hal_lpc.c:125: for(m=0;m<5;m++)
   01C5                    1109 00110$:
                           1110 ;	s:/elektronik/eib/c/fb_common/fb_hal_lpc.c:130: if(error) break;  
                           1111 ;	genIfx
                           1112 ;	genIfxJump
                           1113 ;	Peephole 108.e	removed ljmp by inverse jump logic
   01C5 20*00 08           1114 	jb	b1,00119$
                           1115 ;	Peephole 300	removed redundant label 00152$
                           1116 ;	s:/elektronik/eib/c/fb_common/fb_hal_lpc.c:132: while(!TF1);		// Warten bis 35us abgelaufen
   01C8                    1117 00113$:
                           1118 ;	genIfx
                           1119 ;	genIfxJump
                           1120 ;	Peephole 108.d	removed ljmp by inverse jump logic
   01C8 30 8F FD           1121 	jnb	_TCON_7,00113$
                           1122 ;	Peephole 300	removed redundant label 00153$
                           1123 ;	s:/elektronik/eib/c/fb_common/fb_hal_lpc.c:133: FBOUTC=0;
                           1124 ;	genAssign
   01CB C2 96              1125 	clr	_P1_6
                           1126 ;	s:/elektronik/eib/c/fb_common/fb_hal_lpc.c:111: for(n=0;n<8;n++)		// 8 Datenbits senden
                           1127 ;	genPlus
                           1128 ;     genPlusIncr
   01CD 0B                 1129 	inc	r3
                           1130 ;	Peephole 112.b	changed ljmp to sjmp
   01CE 80 9F              1131 	sjmp	00116$
   01D0                    1132 00119$:
                           1133 ;	s:/elektronik/eib/c/fb_common/fb_hal_lpc.c:135: if(!error)
                           1134 ;	genIfx
                           1135 ;	genIfxJump
                           1136 ;	Peephole 108.e	removed ljmp by inverse jump logic
   01D0 20*00 1A           1137 	jb	b1,00121$
                           1138 ;	Peephole 300	removed redundant label 00154$
                           1139 ;	s:/elektronik/eib/c/fb_common/fb_hal_lpc.c:137: delay(212);			// 69 us Pause vor Parity-Bit
                           1140 ;	genCall
                           1141 ;	Peephole 182.b	used 16 bit load of dptr
   01D3 90 00 D4           1142 	mov	dptr,#0x00D4
   01D6 C0*00              1143 	push	bits
   01D8 12s02r20           1144 	lcall	_delay
   01DB D0*00              1145 	pop	bits
                           1146 ;	s:/elektronik/eib/c/fb_common/fb_hal_lpc.c:138: FBOUTC=parity;
                           1147 ;	genAssign
   01DD A2*00              1148 	mov	c,b0
   01DF 92 96              1149 	mov	_P1_6,c
                           1150 ;	s:/elektronik/eib/c/fb_common/fb_hal_lpc.c:139: delay(95);			// 35us für Parity-Bit
                           1151 ;	genCall
                           1152 ;	Peephole 182.b	used 16 bit load of dptr
   01E1 90 00 5F           1153 	mov	dptr,#0x005F
   01E4 C0*00              1154 	push	bits
   01E6 12s02r20           1155 	lcall	_delay
   01E9 D0*00              1156 	pop	bits
                           1157 ;	s:/elektronik/eib/c/fb_common/fb_hal_lpc.c:140: FBOUTC=0;
                           1158 ;	genAssign
   01EB C2 96              1159 	clr	_P1_6
   01ED                    1160 00121$:
                           1161 ;	s:/elektronik/eib/c/fb_common/fb_hal_lpc.c:142: TR1=0;
                           1162 ;	genAssign
   01ED C2 8E              1163 	clr	_TCON_6
                           1164 ;	s:/elektronik/eib/c/fb_common/fb_hal_lpc.c:144: return error;
                           1165 ;	genRet
   01EF E4                 1166 	clr	a
   01F0 A2*00              1167 	mov	c,b1
   01F2 33                 1168 	rlc	a
   01F3 24 FF              1169 	add	a,#0xff
                           1170 ;	Peephole 300	removed redundant label 00125$
   01F5 22                 1171 	ret
                           1172 ;------------------------------------------------------------
                           1173 ;Allocation info for local variables in function 'start_writecycle'
                           1174 ;------------------------------------------------------------
                           1175 ;------------------------------------------------------------
                           1176 ;	s:/elektronik/eib/c/fb_common/fb_hal_lpc.c:148: void start_writecycle(void)
                           1177 ;	-----------------------------------------
                           1178 ;	 function start_writecycle
                           1179 ;	-----------------------------------------
   01F6                    1180 _start_writecycle:
                           1181 ;	s:/elektronik/eib/c/fb_common/fb_hal_lpc.c:150: FMCON=0x00;			// load command, leert das pageregister
                           1182 ;	genAssign
   01F6 75 E4 00           1183 	mov	_FMCON,#0x00
                           1184 ;	Peephole 300	removed redundant label 00101$
   01F9 22                 1185 	ret
                           1186 ;------------------------------------------------------------
                           1187 ;Allocation info for local variables in function 'stop_writecycle'
                           1188 ;------------------------------------------------------------
                           1189 ;------------------------------------------------------------
                           1190 ;	s:/elektronik/eib/c/fb_common/fb_hal_lpc.c:154: void stop_writecycle(void)
                           1191 ;	-----------------------------------------
                           1192 ;	 function stop_writecycle
                           1193 ;	-----------------------------------------
   01FA                    1194 _stop_writecycle:
                           1195 ;	s:/elektronik/eib/c/fb_common/fb_hal_lpc.c:156: FMCON=0x68;			// write command, schreibt pageregister ins flash und versetzt CPU in idle für 4ms
                           1196 ;	genAssign
   01FA 75 E4 68           1197 	mov	_FMCON,#0x68
                           1198 ;	Peephole 300	removed redundant label 00101$
   01FD 22                 1199 	ret
                           1200 ;------------------------------------------------------------
                           1201 ;Allocation info for local variables in function 'write_byte'
                           1202 ;------------------------------------------------------------
                           1203 ;addrl                     Allocated to stack - offset -3
                           1204 ;zdata                     Allocated to stack - offset -4
                           1205 ;addrh                     Allocated to registers r2 
                           1206 ;------------------------------------------------------------
                           1207 ;	s:/elektronik/eib/c/fb_common/fb_hal_lpc.c:160: void write_byte(unsigned char addrh, unsigned char addrl, unsigned char zdata)	// schreibt byte ins pageregister zum flashen
                           1208 ;	-----------------------------------------
                           1209 ;	 function write_byte
                           1210 ;	-----------------------------------------
   01FE                    1211 _write_byte:
   01FE C0*00              1212 	push	_bp
   0200 85 81*00           1213 	mov	_bp,sp
                           1214 ;	genReceive
                           1215 ;	s:/elektronik/eib/c/fb_common/fb_hal_lpc.c:163: if (addrh<=0x01)		// sicherstellen, dass nicht versehentlich bootloader überschrieben wird
                           1216 ;	genCmpGt
                           1217 ;	genCmp
                           1218 ;	genIfxJump
                           1219 ;	Peephole 132.b	optimized genCmpGt by inverse logic (acc differs)
                           1220 ;	peephole 177.g	optimized mov sequence
   0203 E5 82              1221 	mov	a,dpl
   0205 FA                 1222 	mov	r2,a
   0206 24 FE              1223 	add	a,#0xff - 0x01
                           1224 ;	Peephole 112.b	changed ljmp to sjmp
                           1225 ;	Peephole 160.a	removed sjmp by inverse jump logic
   0208 40 13              1226 	jc	00103$
                           1227 ;	Peephole 300	removed redundant label 00106$
                           1228 ;	s:/elektronik/eib/c/fb_common/fb_hal_lpc.c:165: FMADRH=addrh+0x1C;
                           1229 ;	genPlus
                           1230 ;     genPlusIncr
   020A 74 1C              1231 	mov	a,#0x1C
                           1232 ;	Peephole 236.a	used r2 instead of ar2
   020C 2A                 1233 	add	a,r2
   020D F5 E7              1234 	mov	_FMADRH,a
                           1235 ;	s:/elektronik/eib/c/fb_common/fb_hal_lpc.c:166: FMADRL=addrl;
                           1236 ;	genAssign
   020F A8*00              1237 	mov	r0,_bp
   0211 18                 1238 	dec	r0
   0212 18                 1239 	dec	r0
   0213 18                 1240 	dec	r0
   0214 86 E6              1241 	mov	_FMADRL,@r0
                           1242 ;	s:/elektronik/eib/c/fb_common/fb_hal_lpc.c:167: FMDATA=zdata;
                           1243 ;	genAssign
   0216 E5*00              1244 	mov	a,_bp
   0218 24 FC              1245 	add	a,#0xfffffffc
   021A F8                 1246 	mov	r0,a
   021B 86 E5              1247 	mov	_FMDATA,@r0
   021D                    1248 00103$:
   021D D0*00              1249 	pop	_bp
   021F 22                 1250 	ret
                           1251 ;------------------------------------------------------------
                           1252 ;Allocation info for local variables in function 'delay'
                           1253 ;------------------------------------------------------------
                           1254 ;deltime                   Allocated to registers r2 r3 
                           1255 ;------------------------------------------------------------
                           1256 ;	s:/elektronik/eib/c/fb_common/fb_hal_lpc.c:172: void delay(int deltime)			// Warten, deltime = Anzahl Takte
                           1257 ;	-----------------------------------------
                           1258 ;	 function delay
                           1259 ;	-----------------------------------------
   0220                    1260 _delay:
                           1261 ;	genReceive
   0220 AA 82              1262 	mov	r2,dpl
   0222 AB 83              1263 	mov	r3,dph
                           1264 ;	s:/elektronik/eib/c/fb_common/fb_hal_lpc.c:174: TR1=0;				// Timer 1 anhalten
                           1265 ;	genAssign
   0224 C2 8E              1266 	clr	_TCON_6
                           1267 ;	s:/elektronik/eib/c/fb_common/fb_hal_lpc.c:175: deltime=0xFFFF-deltime;
                           1268 ;	genMinus
   0226 74 FF              1269 	mov	a,#0xFF
   0228 C3                 1270 	clr	c
                           1271 ;	Peephole 236.l	used r2 instead of ar2
   0229 9A                 1272 	subb	a,r2
   022A FA                 1273 	mov	r2,a
   022B 74 FF              1274 	mov	a,#0xFF
                           1275 ;	Peephole 236.l	used r3 instead of ar3
   022D 9B                 1276 	subb	a,r3
   022E FB                 1277 	mov	r3,a
                           1278 ;	s:/elektronik/eib/c/fb_common/fb_hal_lpc.c:176: TH1=deltime>>8;			// Timer 1 setzen 
                           1279 ;	genGetByte
   022F 8B 8D              1280 	mov	_TH1,r3
                           1281 ;	s:/elektronik/eib/c/fb_common/fb_hal_lpc.c:177: TL1=deltime;	
                           1282 ;	genCast
   0231 8A 8B              1283 	mov	_TL1,r2
                           1284 ;	s:/elektronik/eib/c/fb_common/fb_hal_lpc.c:178: TF1=0;
                           1285 ;	genAssign
   0233 C2 8F              1286 	clr	_TCON_7
                           1287 ;	s:/elektronik/eib/c/fb_common/fb_hal_lpc.c:179: TR1=1;
                           1288 ;	genAssign
   0235 D2 8E              1289 	setb	_TCON_6
                           1290 ;	s:/elektronik/eib/c/fb_common/fb_hal_lpc.c:180: while(!TF1);				// warten auf Timer 1
   0237                    1291 00101$:
                           1292 ;	genIfx
                           1293 ;	genIfxJump
                           1294 ;	Peephole 108.d	removed ljmp by inverse jump logic
   0237 30 8F FD           1295 	jnb	_TCON_7,00101$
                           1296 ;	Peephole 300	removed redundant label 00108$
                           1297 ;	s:/elektronik/eib/c/fb_common/fb_hal_lpc.c:181: TR1=0;		
                           1298 ;	genAssign
   023A C2 8E              1299 	clr	_TCON_6
                           1300 ;	Peephole 300	removed redundant label 00104$
   023C 22                 1301 	ret
                           1302 ;------------------------------------------------------------
                           1303 ;Allocation info for local variables in function 'set_timer1'
                           1304 ;------------------------------------------------------------
                           1305 ;deltime                   Allocated to registers r2 r3 
                           1306 ;------------------------------------------------------------
                           1307 ;	s:/elektronik/eib/c/fb_common/fb_hal_lpc.c:185: void set_timer1(int deltime)		// Warten, deltime = Anzahl Takte
                           1308 ;	-----------------------------------------
                           1309 ;	 function set_timer1
                           1310 ;	-----------------------------------------
   023D                    1311 _set_timer1:
                           1312 ;	genReceive
   023D AA 82              1313 	mov	r2,dpl
   023F AB 83              1314 	mov	r3,dph
                           1315 ;	s:/elektronik/eib/c/fb_common/fb_hal_lpc.c:187: TR1=0;				// Timer 1 anhalten
                           1316 ;	genAssign
   0241 C2 8E              1317 	clr	_TCON_6
                           1318 ;	s:/elektronik/eib/c/fb_common/fb_hal_lpc.c:188: deltime=0xFFFF-deltime;
                           1319 ;	genMinus
   0243 74 FF              1320 	mov	a,#0xFF
   0245 C3                 1321 	clr	c
                           1322 ;	Peephole 236.l	used r2 instead of ar2
   0246 9A                 1323 	subb	a,r2
   0247 FA                 1324 	mov	r2,a
   0248 74 FF              1325 	mov	a,#0xFF
                           1326 ;	Peephole 236.l	used r3 instead of ar3
   024A 9B                 1327 	subb	a,r3
   024B FB                 1328 	mov	r3,a
                           1329 ;	s:/elektronik/eib/c/fb_common/fb_hal_lpc.c:189: TH1=deltime>>8;			// Timer 1 setzen 
                           1330 ;	genGetByte
   024C 8B 8D              1331 	mov	_TH1,r3
                           1332 ;	s:/elektronik/eib/c/fb_common/fb_hal_lpc.c:190: TL1=deltime;	
                           1333 ;	genCast
   024E 8A 8B              1334 	mov	_TL1,r2
                           1335 ;	s:/elektronik/eib/c/fb_common/fb_hal_lpc.c:191: TF1=0;				// Überlauf-Flag zurücksetzen
                           1336 ;	genAssign
   0250 C2 8F              1337 	clr	_TCON_7
                           1338 ;	s:/elektronik/eib/c/fb_common/fb_hal_lpc.c:192: TR1=1;				// Timer 1 starten
                           1339 ;	genAssign
   0252 D2 8E              1340 	setb	_TCON_6
                           1341 ;	Peephole 300	removed redundant label 00101$
   0254 22                 1342 	ret
                           1343 ;------------------------------------------------------------
                           1344 ;Allocation info for local variables in function 'read_byte'
                           1345 ;------------------------------------------------------------
                           1346 ;addrl                     Allocated to stack - offset -3
                           1347 ;addrh                     Allocated to registers r2 
                           1348 ;zdata                     Allocated to registers 
                           1349 ;------------------------------------------------------------
                           1350 ;	s:/elektronik/eib/c/fb_common/fb_hal_lpc.c:196: unsigned char read_byte(unsigned char addrh, unsigned char addrl)		// liest byte aus flash
                           1351 ;	-----------------------------------------
                           1352 ;	 function read_byte
                           1353 ;	-----------------------------------------
   0255                    1354 _read_byte:
   0255 C0*00              1355 	push	_bp
   0257 85 81*00           1356 	mov	_bp,sp
                           1357 ;	genReceive
   025A AA 82              1358 	mov	r2,dpl
                           1359 ;	s:/elektronik/eib/c/fb_common/fb_hal_lpc.c:200: zdata=dataflash[(addrh<<8)+addrl];
                           1360 ;	genCast
                           1361 ;	genLeftShift
                           1362 ;	genLeftShiftLiteral
                           1363 ;	genlshTwo
                           1364 ;	peephole 177.e	removed redundant move
   025C 8A 03              1365 	mov	ar3,r2
   025E 7A 00              1366 	mov	r2,#0x00
                           1367 ;	genCast
   0260 A8*00              1368 	mov	r0,_bp
   0262 18                 1369 	dec	r0
   0263 18                 1370 	dec	r0
   0264 18                 1371 	dec	r0
   0265 86 04              1372 	mov	ar4,@r0
   0267 7D 00              1373 	mov	r5,#0x00
                           1374 ;	genPlus
                           1375 ;	Peephole 236.g	used r4 instead of ar4
   0269 EC                 1376 	mov	a,r4
                           1377 ;	Peephole 236.a	used r2 instead of ar2
   026A 2A                 1378 	add	a,r2
   026B FA                 1379 	mov	r2,a
                           1380 ;	Peephole 236.g	used r5 instead of ar5
   026C ED                 1381 	mov	a,r5
                           1382 ;	Peephole 236.b	used r3 instead of ar3
   026D 3B                 1383 	addc	a,r3
   026E FB                 1384 	mov	r3,a
                           1385 ;	genPlus
                           1386 ;     genPlus aligned array
   026F 8A 82              1387 	mov	dpl,r2
   0271 74 1C              1388 	mov	a,#(_dataflash >> 8)
   0273 2B                 1389 	add	a,r3
   0274 F5 83              1390 	mov	dph,a
                           1391 ;	genPointerGet
                           1392 ;	genCodePointerGet
   0276 E4                 1393 	clr	a
   0277 93                 1394 	movc	a,@a+dptr
                           1395 ;	genAssign
   0278 FA                 1396 	mov	r2,a
                           1397 ;	Peephole 244.c	loading dpl from a instead of r2
   0279 F5 82              1398 	mov	dpl,a
                           1399 ;	s:/elektronik/eib/c/fb_common/fb_hal_lpc.c:201: return (zdata);
                           1400 ;	genRet
                           1401 ;	Peephole 300	removed redundant label 00101$
   027B D0*00              1402 	pop	_bp
   027D 22                 1403 	ret
                           1404 ;------------------------------------------------------------
                           1405 ;Allocation info for local variables in function 'restart_hw'
                           1406 ;------------------------------------------------------------
                           1407 ;------------------------------------------------------------
                           1408 ;	s:/elektronik/eib/c/fb_common/fb_hal_lpc.c:205: void restart_hw(void)	// Alle Hardware Einstellungen zurücksetzen
                           1409 ;	-----------------------------------------
                           1410 ;	 function restart_hw
                           1411 ;	-----------------------------------------
   027E                    1412 _restart_hw:
                           1413 ;	s:/elektronik/eib/c/fb_common/fb_hal_lpc.c:209: DIVM=0;		// Taktferquenz nicht teilen -> volles Tempo
                           1414 ;	genAssign
   027E 75 95 00           1415 	mov	_DIVM,#0x00
                           1416 ;	s:/elektronik/eib/c/fb_common/fb_hal_lpc.c:211: P1M1=0x14;		// Port 1 auf quasi-bidirektional, außer P1.2(T0 als PWM Ausgang)=open-drain, P1.4(INT1)=Input only, P1.6(FBOUTC) push-pull
                           1417 ;	genAssign
   0281 75 91 14           1418 	mov	_P1M1,#0x14
                           1419 ;	s:/elektronik/eib/c/fb_common/fb_hal_lpc.c:212: P1M2=0x44;
                           1420 ;	genAssign
   0284 75 92 44           1421 	mov	_P1M2,#0x44
                           1422 ;	s:/elektronik/eib/c/fb_common/fb_hal_lpc.c:214: FBOUTC=0;		// Bus-Ausgang auf low
                           1423 ;	genAssign
   0287 C2 96              1424 	clr	_P1_6
                           1425 ;	s:/elektronik/eib/c/fb_common/fb_hal_lpc.c:216: TMOD=0x12;		// Timer 0 als PWM, Timer 1 als 16-Bit Timer
                           1426 ;	genAssign
   0289 75 89 12           1427 	mov	_TMOD,#0x12
                           1428 ;	s:/elektronik/eib/c/fb_common/fb_hal_lpc.c:217: TAMOD=0x01;
                           1429 ;	genAssign
   028C 75 8F 01           1430 	mov	_TAMOD,#0x01
                           1431 ;	s:/elektronik/eib/c/fb_common/fb_hal_lpc.c:218: TH0=DUTY;		// Pulsverhältnis PWM
                           1432 ;	genAssign
   028F 75 8C C0           1433 	mov	_TH0,#0xC0
                           1434 ;	s:/elektronik/eib/c/fb_common/fb_hal_lpc.c:219: AUXR1|=0x10;		// PWM von Timer 0 auf Pin ausgeben, gleichzeitig low-powermode ein (da <8MHz)
                           1435 ;	genOr
   0292 43 A2 10           1436 	orl	_AUXR1,#0x10
                           1437 ;	s:/elektronik/eib/c/fb_common/fb_hal_lpc.c:221: ET0=0;		// Interrupt für Timer 0 sperren 
                           1438 ;	genAssign
   0295 C2 A9              1439 	clr	_IEN0_1
                           1440 ;	s:/elektronik/eib/c/fb_common/fb_hal_lpc.c:222: TR0=1;		// Timer 0 starten (PWM)
                           1441 ;	genAssign
   0297 D2 8C              1442 	setb	_TCON_4
                           1443 ;	s:/elektronik/eib/c/fb_common/fb_hal_lpc.c:223: TR1=0;		// Timer 1 (Empfangs-Timeout) zunächst stoppen
                           1444 ;	genAssign
   0299 C2 8E              1445 	clr	_TCON_6
                           1446 ;	s:/elektronik/eib/c/fb_common/fb_hal_lpc.c:225: RTCH=0x1D;		// Real Time Clock
                           1447 ;	genAssign
   029B 75 D2 1D           1448 	mov	_RTCH,#0x1D
                           1449 ;	s:/elektronik/eib/c/fb_common/fb_hal_lpc.c:226: RTCL=0x40;
                           1450 ;	genAssign
   029E 75 D3 40           1451 	mov	_RTCL,#0x40
                           1452 ;	s:/elektronik/eib/c/fb_common/fb_hal_lpc.c:227: RTCCON=0x61;
                           1453 ;	genAssign
   02A1 75 D1 61           1454 	mov	_RTCCON,#0x61
                           1455 ;	s:/elektronik/eib/c/fb_common/fb_hal_lpc.c:229: IEN0=0x00;
                           1456 ;	genAssign
   02A4 75 A8 00           1457 	mov	_IEN0,#0x00
                           1458 ;	s:/elektronik/eib/c/fb_common/fb_hal_lpc.c:230: IEN1=0x00;
                           1459 ;	genAssign
   02A7 75 E8 00           1460 	mov	_IEN1,#0x00
                           1461 ;	s:/elektronik/eib/c/fb_common/fb_hal_lpc.c:231: EA=1;			// Interrupts prinzipiell freigeben
                           1462 ;	genAssign
   02AA D2 AF              1463 	setb	_IEN0_7
                           1464 ;	s:/elektronik/eib/c/fb_common/fb_hal_lpc.c:232: EX0=0;		// Externen Interrupt 0 sperren
                           1465 ;	genAssign
   02AC C2 A8              1466 	clr	_IEN0_0
                           1467 ;	s:/elektronik/eib/c/fb_common/fb_hal_lpc.c:233: EX1=1;		// Externen Interrupt 1 freigeben	
                           1468 ;	genAssign
   02AE D2 AA              1469 	setb	_IEN0_2
                           1470 ;	s:/elektronik/eib/c/fb_common/fb_hal_lpc.c:235: IP0=0x0C;		// höchste Priorität für ext. Int. 1 und Timer 1 (Bit 0 und 3)
                           1471 ;	genAssign
   02B0 75 B8 0C           1472 	mov	_IP0,#0x0C
                           1473 ;	s:/elektronik/eib/c/fb_common/fb_hal_lpc.c:236: IP0H=0x0C;
                           1474 ;	genAssign
   02B3 75 B7 0C           1475 	mov	_IP0H,#0x0C
                           1476 ;	s:/elektronik/eib/c/fb_common/fb_hal_lpc.c:237: IP1=0x00;
                           1477 ;	genAssign
   02B6 75 F8 00           1478 	mov	_IP1,#0x00
                           1479 ;	s:/elektronik/eib/c/fb_common/fb_hal_lpc.c:238: IP1H=0x00;
                           1480 ;	genAssign
   02B9 75 F7 00           1481 	mov	_IP1H,#0x00
                           1482 ;	s:/elektronik/eib/c/fb_common/fb_hal_lpc.c:239: IT1=1;		// Int1 flankengetriggert=1 pegelgetriggert=0
                           1483 ;	genAssign
   02BC D2 8A              1484 	setb	_TCON_2
                           1485 ;	s:/elektronik/eib/c/fb_common/fb_hal_lpc.c:241: SCON=0x50;		// Serielle auf Mode 1, receive enable
                           1486 ;	genAssign
   02BE 75 98 50           1487 	mov	_SCON,#0x50
                           1488 ;	s:/elektronik/eib/c/fb_common/fb_hal_lpc.c:242: SSTAT|=0x40;		// TI wird am Ende des Stopbits gesetzt
                           1489 ;	genOr
   02C1 43 BA 40           1490 	orl	_SSTAT,#0x40
                           1491 ;	s:/elektronik/eib/c/fb_common/fb_hal_lpc.c:243: BRGCON|=0x02;		// Baudrate Generator verwenden aber noch gestoppt
                           1492 ;	genOr
   02C4 43 BD 02           1493 	orl	_BRGCON,#0x02
                           1494 ;	s:/elektronik/eib/c/fb_common/fb_hal_lpc.c:244: BRGR1=0x00;		// Baudrate = cclk/((BRGR1,BRGR0)+16)
                           1495 ;	genAssign
   02C7 75 BF 00           1496 	mov	_BRGR1,#0x00
                           1497 ;	s:/elektronik/eib/c/fb_common/fb_hal_lpc.c:245: BRGR0=0x30;
                           1498 ;	genAssign
   02CA 75 BE 30           1499 	mov	_BRGR0,#0x30
                           1500 ;	s:/elektronik/eib/c/fb_common/fb_hal_lpc.c:246: BRGCON|=0x01;		// Baudrate Generator starten
                           1501 ;	genOr
   02CD 43 BD 01           1502 	orl	_BRGCON,#0x01
                           1503 ;	Peephole 300	removed redundant label 00101$
   02D0 22                 1504 	ret
                           1505 ;------------------------------------------------------------
                           1506 ;Allocation info for local variables in function 'timer1'
                           1507 ;------------------------------------------------------------
                           1508 ;data_laenge               Allocated to registers r2 
                           1509 ;daf                       Allocated to registers r3 
                           1510 ;------------------------------------------------------------
                           1511 ;	s:/elektronik/eib/c/fb_common/fb_prot.c:12: void timer1(void) interrupt 3	// Interrupt von Timer 1, 370us keine Busaktivität seit letztem Byte, d.h. Telegramm wurde komplett übertragen
                           1512 ;	-----------------------------------------
                           1513 ;	 function timer1
                           1514 ;	-----------------------------------------
   02D1                    1515 _timer1:
   02D1 C0 E0              1516 	push	acc
   02D3 C0 F0              1517 	push	b
   02D5 C0 82              1518 	push	dpl
   02D7 C0 83              1519 	push	dph
   02D9 C0 02              1520 	push	(0+2)
   02DB C0 03              1521 	push	(0+3)
   02DD C0 04              1522 	push	(0+4)
   02DF C0 05              1523 	push	(0+5)
   02E1 C0 06              1524 	push	(0+6)
   02E3 C0 07              1525 	push	(0+7)
   02E5 C0 00              1526 	push	(0+0)
   02E7 C0 01              1527 	push	(0+1)
   02E9 C0*00              1528 	push	bits
   02EB C0 D0              1529 	push	psw
   02ED 75 D0 00           1530 	mov	psw,#0x00
                           1531 ;	s:/elektronik/eib/c/fb_common/fb_prot.c:16: EX1=0;					// ext. Interrupt stoppen 
                           1532 ;	genAssign
   02F0 C2 AA              1533 	clr	_IEN0_2
                           1534 ;	s:/elektronik/eib/c/fb_common/fb_prot.c:17: ET1=0;					// Interrupt von Timer 1 sperren
                           1535 ;	genAssign
   02F2 C2 AB              1536 	clr	_IEN0_3
                           1537 ;	s:/elektronik/eib/c/fb_common/fb_prot.c:18: TR1=0;					// Timer 1 anhalten
                           1538 ;	genAssign
   02F4 C2 8E              1539 	clr	_TCON_6
                           1540 ;	s:/elektronik/eib/c/fb_common/fb_prot.c:19: TF1=0;
                           1541 ;	genAssign
   02F6 C2 8F              1542 	clr	_TCON_7
                           1543 ;	s:/elektronik/eib/c/fb_common/fb_prot.c:20: TH1=0xED;					// und neu starten für korrekte Positionierung des ACK Bytes
                           1544 ;	genAssign
   02F8 75 8D ED           1545 	mov	_TH1,#0xED
                           1546 ;	s:/elektronik/eib/c/fb_common/fb_prot.c:21: TL1=0x80;				
                           1547 ;	genAssign
   02FB 75 8B 80           1548 	mov	_TL1,#0x80
                           1549 ;	s:/elektronik/eib/c/fb_common/fb_prot.c:22: TR1=1;
                           1550 ;	genAssign
   02FE D2 8E              1551 	setb	_TCON_6
                           1552 ;	s:/elektronik/eib/c/fb_common/fb_prot.c:25: if(cs==0xff)					// Checksum des Telegramms ist OK 
                           1553 ;	genCmpEq
                           1554 ;	gencjneshort
   0300 E5*18              1555 	mov	a,_cs
   0302 B4 FF 02           1556 	cjne	a,#0xFF,00182$
   0305 80 03              1557 	sjmp	00183$
   0307                    1558 00182$:
   0307 02s04r08           1559 	ljmp	00150$
   030A                    1560 00183$:
                           1561 ;	s:/elektronik/eib/c/fb_common/fb_prot.c:27: data_laenge=(telegramm[5]&0x0F);		// Telegramm-Länge = Bit 0 bis 3 
                           1562 ;	genAssign
                           1563 ;	genAnd
   030A 74 0F              1564 	mov	a,#0x0F
   030C 55*05              1565 	anl	a,0x0005 + _telegramm
   030E FA                 1566 	mov	r2,a
                           1567 ;	s:/elektronik/eib/c/fb_common/fb_prot.c:28: daf=(telegramm[5]&0x80);			// Destination Adress Flag = Bit 7, 0=phys. Adr., 1=Gruppenadr.
                           1568 ;	genAnd
   030F 74 80              1569 	mov	a,#0x80
   0311 55*05              1570 	anl	a,0x0005 + _telegramm
   0313 FB                 1571 	mov	r3,a
                           1572 ;	s:/elektronik/eib/c/fb_common/fb_prot.c:30: if(telegramm[3]==0 && telegramm[4]==0)		// Broadcast, wenn Zieladresse = 0
                           1573 ;	genPointerGet
                           1574 ;	genNearPointerGet
                           1575 ;	genDataPointerGet
                           1576 ;	genIfx
                           1577 ;	peephole 177.g	optimized mov sequence
   0314 E5*03              1578 	mov	a,(_telegramm + 0x0003)
   0316 FC                 1579 	mov	r4,a
                           1580 ;	genIfxJump
                           1581 ;	Peephole 108.b	removed ljmp by inverse jump logic
   0317 70 30              1582 	jnz	00146$
                           1583 ;	Peephole 300	removed redundant label 00184$
                           1584 ;	genPointerGet
                           1585 ;	genNearPointerGet
                           1586 ;	genDataPointerGet
   0319 E5*04              1587 	mov	a,(_telegramm + 0x0004)
                           1588 ;	genIfx
                           1589 ;	genIfxJump
                           1590 ;	Peephole 108.b	removed ljmp by inverse jump logic
   031B 70 2C              1591 	jnz	00146$
                           1592 ;	Peephole 300	removed redundant label 00185$
                           1593 ;	s:/elektronik/eib/c/fb_common/fb_prot.c:32: if(progmode)
                           1594 ;	genIfx
                           1595 ;	genIfxJump
   031D 20*01 03           1596 	jb	_progmode,00186$
   0320 02s04r08           1597 	ljmp	00150$
   0323                    1598 00186$:
                           1599 ;	s:/elektronik/eib/c/fb_common/fb_prot.c:34: if(data_laenge==3 && telegramm[6]==0x00 && telegramm[7]==0xC0) set_pa();	// set_pa_req
                           1600 ;	genCmpEq
                           1601 ;	gencjneshort
                           1602 ;	Peephole 112.b	changed ljmp to sjmp
                           1603 ;	Peephole 198.b	optimized misc jump sequence
   0323 BA 03 0C           1604 	cjne	r2,#0x03,00102$
                           1605 ;	Peephole 200.b	removed redundant sjmp
                           1606 ;	Peephole 300	removed redundant label 00187$
                           1607 ;	Peephole 300	removed redundant label 00188$
                           1608 ;	genPointerGet
                           1609 ;	genNearPointerGet
                           1610 ;	genDataPointerGet
   0326 E5*06              1611 	mov	a,(_telegramm + 0x0006)
                           1612 ;	genIfx
                           1613 ;	genIfxJump
                           1614 ;	Peephole 108.b	removed ljmp by inverse jump logic
   0328 70 08              1615 	jnz	00102$
                           1616 ;	Peephole 300	removed redundant label 00189$
                           1617 ;	genAssign
                           1618 ;	genCmpEq
                           1619 ;	gencjneshort
   032A E5*07              1620 	mov	a,0x0007 + _telegramm
                           1621 ;	Peephole 112.b	changed ljmp to sjmp
                           1622 ;	Peephole 198.b	optimized misc jump sequence
   032C B4 C0 03           1623 	cjne	a,#0xC0,00102$
                           1624 ;	Peephole 200.b	removed redundant sjmp
                           1625 ;	Peephole 300	removed redundant label 00190$
                           1626 ;	Peephole 300	removed redundant label 00191$
                           1627 ;	genCall
   032F 12s06r80           1628 	lcall	_set_pa
   0332                    1629 00102$:
                           1630 ;	s:/elektronik/eib/c/fb_common/fb_prot.c:35: if(telegramm[6]==0x01 && telegramm[7]==0x00) read_pa();				// read_pa_req
                           1631 ;	genAssign
                           1632 ;	genCmpEq
                           1633 ;	gencjneshort
   0332 E5*06              1634 	mov	a,0x0006 + _telegramm
   0334 B4 01 02           1635 	cjne	a,#0x01,00192$
   0337 80 03              1636 	sjmp	00193$
   0339                    1637 00192$:
   0339 02s04r08           1638 	ljmp	00150$
   033C                    1639 00193$:
                           1640 ;	genPointerGet
                           1641 ;	genNearPointerGet
                           1642 ;	genDataPointerGet
   033C E5*07              1643 	mov	a,(_telegramm + 0x0007)
                           1644 ;	genIfx
                           1645 ;	genIfxJump
   033E 60 03              1646 	jz	00194$
   0340 02s04r08           1647 	ljmp	00150$
   0343                    1648 00194$:
                           1649 ;	genCall
   0343 12s06rAC           1650 	lcall	_read_pa
   0346 02s04r08           1651 	ljmp	00150$
   0349                    1652 00146$:
                           1653 ;	s:/elektronik/eib/c/fb_common/fb_prot.c:40: if(daf==0x00)					// Unicast, wenn Zieladresse physikalische Adresse ist
                           1654 ;	genIfx
   0349 EB                 1655 	mov	a,r3
                           1656 ;	genIfxJump
   034A 60 03              1657 	jz	00195$
   034C 02s03rF0           1658 	ljmp	00143$
   034F                    1659 00195$:
                           1660 ;	s:/elektronik/eib/c/fb_common/fb_prot.c:42: if(telegramm[3]==pah && telegramm[4]==pal)	// nur wenn es die eigene phys. Adr. ist
                           1661 ;	genCmpEq
                           1662 ;	gencjneshort
   034F EC                 1663 	mov	a,r4
   0350 B5*1A 02           1664 	cjne	a,_pah,00196$
   0353 80 03              1665 	sjmp	00197$
   0355                    1666 00196$:
   0355 02s04r08           1667 	ljmp	00150$
   0358                    1668 00197$:
                           1669 ;	genAssign
                           1670 ;	genCmpEq
                           1671 ;	gencjneshort
   0358 E5*04              1672 	mov	a,0x0004 + _telegramm
   035A B5*19 02           1673 	cjne	a,_pal,00198$
   035D 80 03              1674 	sjmp	00199$
   035F                    1675 00198$:
   035F 02s04r08           1676 	ljmp	00150$
   0362                    1677 00199$:
                           1678 ;	s:/elektronik/eib/c/fb_common/fb_prot.c:44: if((telegramm[6]&0xC3)==0x42 && (telegramm[7]&0xC0)==0x80) write_memory();	// write_memory_request beantworten
                           1679 ;	genAssign
                           1680 ;	genAnd
   0362 74 C3              1681 	mov	a,#0xC3
   0364 55*06              1682 	anl	a,0x0006 + _telegramm
   0366 FB                 1683 	mov	r3,a
                           1684 ;	genCmpEq
                           1685 ;	gencjneshort
                           1686 ;	Peephole 112.b	changed ljmp to sjmp
                           1687 ;	Peephole 198.b	optimized misc jump sequence
   0367 BB 42 0F           1688 	cjne	r3,#0x42,00111$
                           1689 ;	Peephole 200.b	removed redundant sjmp
                           1690 ;	Peephole 300	removed redundant label 00200$
                           1691 ;	Peephole 300	removed redundant label 00201$
                           1692 ;	genAssign
                           1693 ;	genAnd
   036A 74 C0              1694 	mov	a,#0xC0
   036C 55*07              1695 	anl	a,0x0007 + _telegramm
   036E FB                 1696 	mov	r3,a
                           1697 ;	genCmpEq
                           1698 ;	gencjneshort
                           1699 ;	Peephole 112.b	changed ljmp to sjmp
                           1700 ;	Peephole 198.b	optimized misc jump sequence
   036F BB 80 07           1701 	cjne	r3,#0x80,00111$
                           1702 ;	Peephole 200.b	removed redundant sjmp
                           1703 ;	Peephole 300	removed redundant label 00202$
                           1704 ;	Peephole 300	removed redundant label 00203$
                           1705 ;	genCall
   0372 C0 02              1706 	push	ar2
   0374 12s05rF9           1707 	lcall	_write_memory
   0377 D0 02              1708 	pop	ar2
   0379                    1709 00111$:
                           1710 ;	s:/elektronik/eib/c/fb_common/fb_prot.c:45: if(data_laenge==0)
                           1711 ;	genIfx
   0379 EA                 1712 	mov	a,r2
                           1713 ;	genIfxJump
                           1714 ;	Peephole 108.b	removed ljmp by inverse jump logic
   037A 70 27              1715 	jnz	00120$
                           1716 ;	Peephole 300	removed redundant label 00204$
                           1717 ;	s:/elektronik/eib/c/fb_common/fb_prot.c:47: if((telegramm[6]&0xC0)==0xC0) send_ack();				// auf NCD_Quittierung mit ACK antworten
                           1718 ;	genAssign
                           1719 ;	genAnd
   037C 74 C0              1720 	mov	a,#0xC0
   037E 55*06              1721 	anl	a,0x0006 + _telegramm
   0380 FB                 1722 	mov	r3,a
                           1723 ;	genCmpEq
                           1724 ;	gencjneshort
                           1725 ;	Peephole 112.b	changed ljmp to sjmp
                           1726 ;	Peephole 198.b	optimized misc jump sequence
   0381 BB C0 07           1727 	cjne	r3,#0xC0,00114$
                           1728 ;	Peephole 200.b	removed redundant sjmp
                           1729 ;	Peephole 300	removed redundant label 00205$
                           1730 ;	Peephole 300	removed redundant label 00206$
                           1731 ;	genCall
   0384 C0 02              1732 	push	ar2
   0386 12s05r29           1733 	lcall	_send_ack
   0389 D0 02              1734 	pop	ar2
   038B                    1735 00114$:
                           1736 ;	s:/elektronik/eib/c/fb_common/fb_prot.c:48: if(telegramm[6]==0x80) ucd_opr();					// UCD Verbindungsaufbau
                           1737 ;	genAssign
                           1738 ;	genCmpEq
                           1739 ;	gencjneshort
   038B E5*06              1740 	mov	a,0x0006 + _telegramm
                           1741 ;	Peephole 112.b	changed ljmp to sjmp
                           1742 ;	Peephole 198.b	optimized misc jump sequence
   038D B4 80 07           1743 	cjne	a,#0x80,00116$
                           1744 ;	Peephole 200.b	removed redundant sjmp
                           1745 ;	Peephole 300	removed redundant label 00207$
                           1746 ;	Peephole 300	removed redundant label 00208$
                           1747 ;	genCall
   0390 C0 02              1748 	push	ar2
   0392 12s05r35           1749 	lcall	_ucd_opr
   0395 D0 02              1750 	pop	ar2
   0397                    1751 00116$:
                           1752 ;	s:/elektronik/eib/c/fb_common/fb_prot.c:49: if(telegramm[6]==0x81) ucd_clr();					// UCD Verbindungsabbau
                           1753 ;	genAssign
                           1754 ;	genCmpEq
                           1755 ;	gencjneshort
   0397 E5*06              1756 	mov	a,0x0006 + _telegramm
                           1757 ;	Peephole 112.b	changed ljmp to sjmp
                           1758 ;	Peephole 198.b	optimized misc jump sequence
   0399 B4 81 07           1759 	cjne	a,#0x81,00120$
                           1760 ;	Peephole 200.b	removed redundant sjmp
                           1761 ;	Peephole 300	removed redundant label 00209$
                           1762 ;	Peephole 300	removed redundant label 00210$
                           1763 ;	genCall
   039C C0 02              1764 	push	ar2
   039E 12s05r47           1765 	lcall	_ucd_clr
   03A1 D0 02              1766 	pop	ar2
   03A3                    1767 00120$:
                           1768 ;	s:/elektronik/eib/c/fb_common/fb_prot.c:51: if(data_laenge==1)
                           1769 ;	genCmpEq
                           1770 ;	gencjneshort
                           1771 ;	Peephole 112.b	changed ljmp to sjmp
                           1772 ;	Peephole 198.b	optimized misc jump sequence
   03A3 BA 01 32           1773 	cjne	r2,#0x01,00128$
                           1774 ;	Peephole 200.b	removed redundant sjmp
                           1775 ;	Peephole 300	removed redundant label 00211$
                           1776 ;	Peephole 300	removed redundant label 00212$
                           1777 ;	s:/elektronik/eib/c/fb_common/fb_prot.c:53: if((telegramm[6]&0x03)==0x03 && telegramm[7]==0x80)		// restart request
                           1778 ;	genAssign
                           1779 ;	genAnd
   03A6 74 03              1780 	mov	a,#0x03
   03A8 55*06              1781 	anl	a,0x0006 + _telegramm
   03AA FB                 1782 	mov	r3,a
                           1783 ;	genCmpEq
                           1784 ;	gencjneshort
                           1785 ;	Peephole 112.b	changed ljmp to sjmp
                           1786 ;	Peephole 198.b	optimized misc jump sequence
   03AB BB 03 1A           1787 	cjne	r3,#0x03,00122$
                           1788 ;	Peephole 200.b	removed redundant sjmp
                           1789 ;	Peephole 300	removed redundant label 00213$
                           1790 ;	Peephole 300	removed redundant label 00214$
                           1791 ;	genAssign
                           1792 ;	genCmpEq
                           1793 ;	gencjneshort
   03AE E5*07              1794 	mov	a,0x0007 + _telegramm
                           1795 ;	Peephole 112.b	changed ljmp to sjmp
                           1796 ;	Peephole 198.b	optimized misc jump sequence
   03B0 B4 80 15           1797 	cjne	a,#0x80,00122$
                           1798 ;	Peephole 200.b	removed redundant sjmp
                           1799 ;	Peephole 300	removed redundant label 00215$
                           1800 ;	Peephole 300	removed redundant label 00216$
                           1801 ;	s:/elektronik/eib/c/fb_common/fb_prot.c:55: restart_hw();	// Hardware zurücksetzen
                           1802 ;	genCall
   03B3 C0 02              1803 	push	ar2
   03B5 12s02r7E           1804 	lcall	_restart_hw
   03B8 D0 02              1805 	pop	ar2
                           1806 ;	s:/elektronik/eib/c/fb_common/fb_prot.c:56: restart_prot();	// Protokoll-relevante Parameter zurücksetzen
                           1807 ;	genCall
   03BA C0 02              1808 	push	ar2
   03BC 12s09r1F           1809 	lcall	_restart_prot
   03BF D0 02              1810 	pop	ar2
                           1811 ;	s:/elektronik/eib/c/fb_common/fb_prot.c:57: restart_app();	// Anwendungsspezifische Einstellungen zurücksetzen
                           1812 ;	genCall
   03C1 C0 02              1813 	push	ar2
   03C3 12s14rD5           1814 	lcall	_restart_app
   03C6 D0 02              1815 	pop	ar2
   03C8                    1816 00122$:
                           1817 ;	s:/elektronik/eib/c/fb_common/fb_prot.c:59: if(telegramm[6]==0x43 && telegramm[7]==0x00) read_masq();		// Maskenversion angefordert
                           1818 ;	genAssign
                           1819 ;	genCmpEq
                           1820 ;	gencjneshort
   03C8 E5*06              1821 	mov	a,0x0006 + _telegramm
                           1822 ;	Peephole 112.b	changed ljmp to sjmp
                           1823 ;	Peephole 198.b	optimized misc jump sequence
   03CA B4 43 0B           1824 	cjne	a,#0x43,00128$
                           1825 ;	Peephole 200.b	removed redundant sjmp
                           1826 ;	Peephole 300	removed redundant label 00217$
                           1827 ;	Peephole 300	removed redundant label 00218$
                           1828 ;	genPointerGet
                           1829 ;	genNearPointerGet
                           1830 ;	genDataPointerGet
   03CD E5*07              1831 	mov	a,(_telegramm + 0x0007)
                           1832 ;	genIfx
                           1833 ;	genIfxJump
                           1834 ;	Peephole 108.b	removed ljmp by inverse jump logic
   03CF 70 07              1835 	jnz	00128$
                           1836 ;	Peephole 300	removed redundant label 00219$
                           1837 ;	genCall
   03D1 C0 02              1838 	push	ar2
   03D3 12s05r82           1839 	lcall	_read_masq
   03D6 D0 02              1840 	pop	ar2
   03D8                    1841 00128$:
                           1842 ;	s:/elektronik/eib/c/fb_common/fb_prot.c:61: if(data_laenge==3)
                           1843 ;	genCmpEq
                           1844 ;	gencjneshort
                           1845 ;	Peephole 112.b	changed ljmp to sjmp
                           1846 ;	Peephole 198.b	optimized misc jump sequence
   03D8 BA 03 2D           1847 	cjne	r2,#0x03,00150$
                           1848 ;	Peephole 200.b	removed redundant sjmp
                           1849 ;	Peephole 300	removed redundant label 00220$
                           1850 ;	Peephole 300	removed redundant label 00221$
                           1851 ;	s:/elektronik/eib/c/fb_common/fb_prot.c:63: if((telegramm[6]&0xC3)==0x42 && (telegramm[7]&0xC0)==0x00) read_memory();	// read_memory_request beantworten
                           1852 ;	genAssign
                           1853 ;	genAnd
   03DB 74 C3              1854 	mov	a,#0xC3
   03DD 55*06              1855 	anl	a,0x0006 + _telegramm
   03DF FB                 1856 	mov	r3,a
                           1857 ;	genCmpEq
                           1858 ;	gencjneshort
                           1859 ;	Peephole 112.b	changed ljmp to sjmp
                           1860 ;	Peephole 198.b	optimized misc jump sequence
   03E0 BB 42 25           1861 	cjne	r3,#0x42,00150$
                           1862 ;	Peephole 200.b	removed redundant sjmp
                           1863 ;	Peephole 300	removed redundant label 00222$
                           1864 ;	Peephole 300	removed redundant label 00223$
                           1865 ;	genAssign
                           1866 ;	genAnd
   03E3 E5*07              1867 	mov	a,0x0007 + _telegramm
   03E5 54 C0              1868 	anl	a,#0xC0
                           1869 ;	Peephole 160.c	removed sjmp by inverse jump logic
   03E7 60 02              1870 	jz	00225$
                           1871 ;	Peephole 300	removed redundant label 00224$
                           1872 ;	Peephole 112.b	changed ljmp to sjmp
   03E9 80 1D              1873 	sjmp	00150$
   03EB                    1874 00225$:
                           1875 ;	genCall
   03EB 12s05r9D           1876 	lcall	_read_memory
                           1877 ;	Peephole 112.b	changed ljmp to sjmp
   03EE 80 18              1878 	sjmp	00150$
   03F0                    1879 00143$:
                           1880 ;	s:/elektronik/eib/c/fb_common/fb_prot.c:70: if(data_laenge==1 && telegramm[6]==0x00 && ((telegramm[7]&0xFE)==0x80 || telegramm[7]==0x00)) eis1();	// Ausgänge schalten (EIS 1) oder lesen
                           1881 ;	genCmpEq
                           1882 ;	gencjneshort
                           1883 ;	Peephole 112.b	changed ljmp to sjmp
                           1884 ;	Peephole 198.b	optimized misc jump sequence
   03F0 BA 01 15           1885 	cjne	r2,#0x01,00150$
                           1886 ;	Peephole 200.b	removed redundant sjmp
                           1887 ;	Peephole 300	removed redundant label 00226$
                           1888 ;	Peephole 300	removed redundant label 00227$
                           1889 ;	genPointerGet
                           1890 ;	genNearPointerGet
                           1891 ;	genDataPointerGet
   03F3 E5*06              1892 	mov	a,(_telegramm + 0x0006)
                           1893 ;	genIfx
                           1894 ;	genIfxJump
                           1895 ;	Peephole 108.b	removed ljmp by inverse jump logic
   03F5 70 11              1896 	jnz	00150$
                           1897 ;	Peephole 300	removed redundant label 00228$
                           1898 ;	genPointerGet
                           1899 ;	genNearPointerGet
                           1900 ;	genDataPointerGet
   03F7 AA*07              1901 	mov	r2,(_telegramm + 0x0007)
                           1902 ;	genAnd
   03F9 74 FE              1903 	mov	a,#0xFE
   03FB 5A                 1904 	anl	a,r2
   03FC FB                 1905 	mov	r3,a
                           1906 ;	genCmpEq
                           1907 ;	gencjneshort
   03FD BB 80 02           1908 	cjne	r3,#0x80,00229$
                           1909 ;	Peephole 112.b	changed ljmp to sjmp
   0400 80 03              1910 	sjmp	00137$
   0402                    1911 00229$:
                           1912 ;	genIfx
   0402 EA                 1913 	mov	a,r2
                           1914 ;	genIfxJump
                           1915 ;	Peephole 108.b	removed ljmp by inverse jump logic
   0403 70 03              1916 	jnz	00150$
                           1917 ;	Peephole 300	removed redundant label 00230$
   0405                    1918 00137$:
                           1919 ;	genCall
   0405 12s0Br4A           1920 	lcall	_eis1
   0408                    1921 00150$:
                           1922 ;	s:/elektronik/eib/c/fb_common/fb_prot.c:74: telpos=0;  
                           1923 ;	genAssign
   0408 75*17 00           1924 	mov	_telpos,#0x00
                           1925 ;	s:/elektronik/eib/c/fb_common/fb_prot.c:75: IE1=0;		// IRQ zurücksetzen
                           1926 ;	genAssign
   040B C2 8B              1927 	clr	_TCON_3
                           1928 ;	s:/elektronik/eib/c/fb_common/fb_prot.c:76: EX1=1;		// externen Interrupt 0 wieder freigeben
                           1929 ;	genAssign
   040D D2 AA              1930 	setb	_IEN0_2
                           1931 ;	Peephole 300	removed redundant label 00151$
   040F D0 D0              1932 	pop	psw
   0411 D0*00              1933 	pop	bits
   0413 D0 01              1934 	pop	(0+1)
   0415 D0 00              1935 	pop	(0+0)
   0417 D0 07              1936 	pop	(0+7)
   0419 D0 06              1937 	pop	(0+6)
   041B D0 05              1938 	pop	(0+5)
   041D D0 04              1939 	pop	(0+4)
   041F D0 03              1940 	pop	(0+3)
   0421 D0 02              1941 	pop	(0+2)
   0423 D0 83              1942 	pop	dph
   0425 D0 82              1943 	pop	dpl
   0427 D0 F0              1944 	pop	b
   0429 D0 E0              1945 	pop	acc
   042B 32                 1946 	reti
                           1947 ;------------------------------------------------------------
                           1948 ;Allocation info for local variables in function 'get_ack'
                           1949 ;------------------------------------------------------------
                           1950 ;ret                       Allocated to registers r2 
                           1951 ;n                         Allocated to registers r3 r4 
                           1952 ;------------------------------------------------------------
                           1953 ;	s:/elektronik/eib/c/fb_common/fb_prot.c:83: unsigned char get_ack(void)		// Byte empfangen und prüfen ob es ein ACK war
                           1954 ;	-----------------------------------------
                           1955 ;	 function get_ack
                           1956 ;	-----------------------------------------
   042C                    1957 _get_ack:
                           1958 ;	s:/elektronik/eib/c/fb_common/fb_prot.c:89: ret=0;
                           1959 ;	genAssign
   042C 7A 00              1960 	mov	r2,#0x00
                           1961 ;	s:/elektronik/eib/c/fb_common/fb_prot.c:90: do 
                           1962 ;	genAssign
   042E 7B 00              1963 	mov	r3,#0x00
   0430 7C 00              1964 	mov	r4,#0x00
   0432                    1965 00107$:
                           1966 ;	genIfx
                           1967 ;	genIfxJump
                           1968 ;	Peephole 108.d	removed ljmp by inverse jump logic
   0432 30 94 07           1969 	jnb	_P1_4,00105$
                           1970 ;	Peephole 300	removed redundant label 00118$
                           1971 ;	s:/elektronik/eib/c/fb_common/fb_prot.c:92: if(FBINC==1) n++;
                           1972 ;	genPlus
                           1973 ;     genPlusIncr
   0435 0B                 1974 	inc	r3
                           1975 ;	Peephole 112.b	changed ljmp to sjmp
                           1976 ;	Peephole 243	avoided branch to sjmp
   0436 BB 00 1C           1977 	cjne	r3,#0x00,00108$
   0439 0C                 1978 	inc	r4
                           1979 ;	Peephole 300	removed redundant label 00119$
   043A 80 19              1980 	sjmp	00108$
   043C                    1981 00105$:
                           1982 ;	s:/elektronik/eib/c/fb_common/fb_prot.c:95: if (get_byte()==0xCC && parity_ok) ret=1;
                           1983 ;	genCall
   043C C0 02              1984 	push	ar2
   043E C0 03              1985 	push	ar3
   0440 C0 04              1986 	push	ar4
   0442 12s00r05           1987 	lcall	_get_byte
   0445 AD 82              1988 	mov	r5,dpl
   0447 D0 04              1989 	pop	ar4
   0449 D0 03              1990 	pop	ar3
   044B D0 02              1991 	pop	ar2
                           1992 ;	genCmpEq
                           1993 ;	gencjneshort
                           1994 ;	Peephole 112.b	changed ljmp to sjmp
                           1995 ;	Peephole 198.b	optimized misc jump sequence
   044D BD CC 05           1996 	cjne	r5,#0xCC,00108$
                           1997 ;	Peephole 200.b	removed redundant sjmp
                           1998 ;	Peephole 300	removed redundant label 00120$
                           1999 ;	Peephole 300	removed redundant label 00121$
                           2000 ;	genIfx
                           2001 ;	genIfxJump
                           2002 ;	Peephole 108.d	removed ljmp by inverse jump logic
   0450 30*00 02           2003 	jnb	_parity_ok,00108$
                           2004 ;	Peephole 300	removed redundant label 00122$
                           2005 ;	genAssign
   0453 7A 01              2006 	mov	r2,#0x01
   0455                    2007 00108$:
                           2008 ;	s:/elektronik/eib/c/fb_common/fb_prot.c:97: } while (n<3000);
                           2009 ;	genCmpLt
                           2010 ;	genCmp
   0455 C3                 2011 	clr	c
   0456 EB                 2012 	mov	a,r3
   0457 94 B8              2013 	subb	a,#0xB8
   0459 EC                 2014 	mov	a,r4
   045A 64 80              2015 	xrl	a,#0x80
   045C 94 8B              2016 	subb	a,#0x8b
                           2017 ;	genIfxJump
                           2018 ;	Peephole 112.b	changed ljmp to sjmp
                           2019 ;	Peephole 160.a	removed sjmp by inverse jump logic
   045E 40 D2              2020 	jc	00107$
                           2021 ;	Peephole 300	removed redundant label 00123$
                           2022 ;	s:/elektronik/eib/c/fb_common/fb_prot.c:98: return(ret);
                           2023 ;	genRet
   0460 8A 82              2024 	mov	dpl,r2
                           2025 ;	Peephole 300	removed redundant label 00110$
   0462 22                 2026 	ret
                           2027 ;------------------------------------------------------------
                           2028 ;Allocation info for local variables in function 'send_telegramm'
                           2029 ;------------------------------------------------------------
                           2030 ;data_laenge               Allocated to stack - offset 1
                           2031 ;l                         Allocated to registers r5 
                           2032 ;checksum                  Allocated to registers r3 
                           2033 ;r                         Allocated to registers r2 
                           2034 ;------------------------------------------------------------
                           2035 ;	s:/elektronik/eib/c/fb_common/fb_prot.c:103: void send_telegramm(void)		// sendet das Telegramm, das in telegramm[] vorher abgelegt wurde und berechnet die checksum
                           2036 ;	-----------------------------------------
                           2037 ;	 function send_telegramm
                           2038 ;	-----------------------------------------
   0463                    2039 _send_telegramm:
   0463 C0*00              2040 	push	_bp
   0465 85 81*00           2041 	mov	_bp,sp
   0468 05 81              2042 	inc	sp
                           2043 ;	s:/elektronik/eib/c/fb_common/fb_prot.c:107: r=0;
                           2044 ;	genAssign
   046A 7A 00              2045 	mov	r2,#0x00
                           2046 ;	s:/elektronik/eib/c/fb_common/fb_prot.c:108: do
   046C                    2047 00108$:
                           2048 ;	s:/elektronik/eib/c/fb_common/fb_prot.c:110: checksum=0;
                           2049 ;	genAssign
   046C 7B 00              2050 	mov	r3,#0x00
                           2051 ;	s:/elektronik/eib/c/fb_common/fb_prot.c:111: data_laenge=telegramm[5]&0x0F;	// Telegramm-Länge = Bit 0 bis 3
                           2052 ;	genAssign
                           2053 ;	genAnd
   046E A8*00              2054 	mov	r0,_bp
   0470 08                 2055 	inc	r0
   0471 74 0F              2056 	mov	a,#0x0F
   0473 55*05              2057 	anl	a,0x0005 + _telegramm
   0475 F6                 2058 	mov	@r0,a
                           2059 ;	s:/elektronik/eib/c/fb_common/fb_prot.c:113: set_timer1(18780);			// Warten bis Bus frei ist
                           2060 ;	genCall
                           2061 ;	Peephole 182.b	used 16 bit load of dptr
   0476 90 49 5C           2062 	mov	dptr,#0x495C
   0479 C0 02              2063 	push	ar2
   047B C0 03              2064 	push	ar3
   047D 12s02r3D           2065 	lcall	_set_timer1
   0480 D0 03              2066 	pop	ar3
   0482 D0 02              2067 	pop	ar2
                           2068 ;	s:/elektronik/eib/c/fb_common/fb_prot.c:114: while(!TF1)
   0484                    2069 00103$:
                           2070 ;	genIfx
                           2071 ;	genIfxJump
                           2072 ;	Peephole 108.e	removed ljmp by inverse jump logic
   0484 20 8F 13           2073 	jb	_TCON_7,00105$
                           2074 ;	Peephole 300	removed redundant label 00125$
                           2075 ;	s:/elektronik/eib/c/fb_common/fb_prot.c:116: if(!FBINC) set_timer1(18780);
                           2076 ;	genIfx
                           2077 ;	genIfxJump
                           2078 ;	Peephole 108.e	removed ljmp by inverse jump logic
   0487 20 94 FA           2079 	jb	_P1_4,00103$
                           2080 ;	Peephole 300	removed redundant label 00126$
                           2081 ;	genCall
                           2082 ;	Peephole 182.b	used 16 bit load of dptr
   048A 90 49 5C           2083 	mov	dptr,#0x495C
   048D C0 02              2084 	push	ar2
   048F C0 03              2085 	push	ar3
   0491 12s02r3D           2086 	lcall	_set_timer1
   0494 D0 03              2087 	pop	ar3
   0496 D0 02              2088 	pop	ar2
                           2089 ;	Peephole 112.b	changed ljmp to sjmp
   0498 80 EA              2090 	sjmp	00103$
   049A                    2091 00105$:
                           2092 ;	s:/elektronik/eib/c/fb_common/fb_prot.c:118: TR1=0;
                           2093 ;	genAssign
   049A C2 8E              2094 	clr	_TCON_6
                           2095 ;	s:/elektronik/eib/c/fb_common/fb_prot.c:120: for(l=0;l<=data_laenge+6;l++)
                           2096 ;	genAssign
   049C 7D 00              2097 	mov	r5,#0x00
   049E                    2098 00111$:
                           2099 ;	genIpush
   049E C0 02              2100 	push	ar2
                           2101 ;	genCast
   04A0 A8*00              2102 	mov	r0,_bp
   04A2 08                 2103 	inc	r0
   04A3 86 06              2104 	mov	ar6,@r0
   04A5 7F 00              2105 	mov	r7,#0x00
                           2106 ;	genPlus
                           2107 ;     genPlusIncr
   04A7 74 06              2108 	mov	a,#0x06
                           2109 ;	Peephole 236.a	used r6 instead of ar6
   04A9 2E                 2110 	add	a,r6
   04AA FE                 2111 	mov	r6,a
                           2112 ;	Peephole 181	changed mov to clr
   04AB E4                 2113 	clr	a
                           2114 ;	Peephole 236.b	used r7 instead of ar7
   04AC 3F                 2115 	addc	a,r7
   04AD FF                 2116 	mov	r7,a
                           2117 ;	genCast
   04AE 8D 02              2118 	mov	ar2,r5
   04B0 7C 00              2119 	mov	r4,#0x00
                           2120 ;	genCmpGt
                           2121 ;	genCmp
   04B2 C3                 2122 	clr	c
   04B3 EE                 2123 	mov	a,r6
   04B4 9A                 2124 	subb	a,r2
   04B5 EF                 2125 	mov	a,r7
   04B6 64 80              2126 	xrl	a,#0x80
   04B8 8C F0              2127 	mov	b,r4
   04BA 63 F0 80           2128 	xrl	b,#0x80
   04BD 95 F0              2129 	subb	a,b
                           2130 ;	genIpop
                           2131 ;	genIfx
                           2132 ;	genIfxJump
                           2133 ;	Peephole 108.b	removed ljmp by inverse jump logic
                           2134 ;	Peephole 129.b	optimized condition
   04BF D0 02              2135 	pop	ar2
   04C1 40 35              2136 	jc	00114$
                           2137 ;	Peephole 300	removed redundant label 00127$
                           2138 ;	s:/elektronik/eib/c/fb_common/fb_prot.c:122: sendbyte(telegramm[l]);
                           2139 ;	genPlus
                           2140 ;	Peephole 236.g	used r5 instead of ar5
   04C3 ED                 2141 	mov	a,r5
   04C4 24r00              2142 	add	a,#_telegramm
   04C6 F8                 2143 	mov	r0,a
                           2144 ;	genPointerGet
                           2145 ;	genNearPointerGet
   04C7 86 82              2146 	mov	dpl,@r0
                           2147 ;	genCall
   04C9 C0 02              2148 	push	ar2
   04CB C0 03              2149 	push	ar3
   04CD C0 05              2150 	push	ar5
   04CF 12s01r55           2151 	lcall	_sendbyte
   04D2 D0 05              2152 	pop	ar5
   04D4 D0 03              2153 	pop	ar3
   04D6 D0 02              2154 	pop	ar2
   04D8 E4                 2155 	clr	a
   04D9 33                 2156 	rlc	a
                           2157 ;	s:/elektronik/eib/c/fb_common/fb_prot.c:123: checksum^=telegramm[l];
                           2158 ;	genPlus
                           2159 ;	Peephole 236.g	used r5 instead of ar5
   04DA ED                 2160 	mov	a,r5
   04DB 24r00              2161 	add	a,#_telegramm
   04DD F8                 2162 	mov	r0,a
                           2163 ;	genPointerGet
                           2164 ;	genNearPointerGet
   04DE 86 04              2165 	mov	ar4,@r0
                           2166 ;	genXor
   04E0 EC                 2167 	mov	a,r4
   04E1 62 03              2168 	xrl	ar3,a
                           2169 ;	s:/elektronik/eib/c/fb_common/fb_prot.c:124: delay(1230);			// Interbyte-Abstand
                           2170 ;	genCall
                           2171 ;	Peephole 182.b	used 16 bit load of dptr
   04E3 90 04 CE           2172 	mov	dptr,#0x04CE
   04E6 C0 02              2173 	push	ar2
   04E8 C0 03              2174 	push	ar3
   04EA C0 05              2175 	push	ar5
   04EC 12s02r20           2176 	lcall	_delay
   04EF D0 05              2177 	pop	ar5
   04F1 D0 03              2178 	pop	ar3
   04F3 D0 02              2179 	pop	ar2
                           2180 ;	s:/elektronik/eib/c/fb_common/fb_prot.c:120: for(l=0;l<=data_laenge+6;l++)
                           2181 ;	genPlus
                           2182 ;     genPlusIncr
   04F5 0D                 2183 	inc	r5
                           2184 ;	Peephole 112.b	changed ljmp to sjmp
   04F6 80 A6              2185 	sjmp	00111$
   04F8                    2186 00114$:
                           2187 ;	s:/elektronik/eib/c/fb_common/fb_prot.c:126: checksum=~checksum;
                           2188 ;	genCpl
   04F8 EB                 2189 	mov	a,r3
   04F9 F4                 2190 	cpl	a
                           2191 ;	s:/elektronik/eib/c/fb_common/fb_prot.c:127: sendbyte(checksum);
                           2192 ;	genCall
   04FA FB                 2193 	mov	r3,a
                           2194 ;	Peephole 244.c	loading dpl from a instead of r3
   04FB F5 82              2195 	mov	dpl,a
   04FD C0 02              2196 	push	ar2
   04FF 12s01r55           2197 	lcall	_sendbyte
   0502 D0 02              2198 	pop	ar2
   0504 E4                 2199 	clr	a
   0505 33                 2200 	rlc	a
                           2201 ;	s:/elektronik/eib/c/fb_common/fb_prot.c:128: if(get_ack()==1) r=3;		// wenn ACK empfangen, dann nicht nochmal senden
                           2202 ;	genCall
   0506 C0 02              2203 	push	ar2
   0508 12s04r2C           2204 	lcall	_get_ack
   050B AB 82              2205 	mov	r3,dpl
   050D D0 02              2206 	pop	ar2
                           2207 ;	genCmpEq
                           2208 ;	gencjneshort
                           2209 ;	Peephole 112.b	changed ljmp to sjmp
                           2210 ;	Peephole 198.b	optimized misc jump sequence
   050F BB 01 02           2211 	cjne	r3,#0x01,00107$
                           2212 ;	Peephole 200.b	removed redundant sjmp
                           2213 ;	Peephole 300	removed redundant label 00128$
                           2214 ;	Peephole 300	removed redundant label 00129$
                           2215 ;	genAssign
   0512 7A 03              2216 	mov	r2,#0x03
   0514                    2217 00107$:
                           2218 ;	s:/elektronik/eib/c/fb_common/fb_prot.c:129: r++;
                           2219 ;	genPlus
                           2220 ;     genPlusIncr
   0514 0A                 2221 	inc	r2
                           2222 ;	s:/elektronik/eib/c/fb_common/fb_prot.c:130: telegramm[0]&=0xDF;			// Bit 5 löschen = Wiederholung
                           2223 ;	genAssign
                           2224 ;	genAnd
   0515 74 DF              2225 	mov	a,#0xDF
   0517 55*00              2226 	anl	a,_telegramm
                           2227 ;	genPointerSet
                           2228 ;	genNearPointerSet
                           2229 ;	genDataPointerSet
   0519 F5*00              2230 	mov	_telegramm,a
                           2231 ;	s:/elektronik/eib/c/fb_common/fb_prot.c:132: while(r<=3); 				// falls kein ACK max. 3 Mal wiederholen
                           2232 ;	genCmpGt
                           2233 ;	genCmp
                           2234 ;	genIfxJump
                           2235 ;	Peephole 132.c	optimized genCmpGt by inverse logic (acc differs)
   051B EA                 2236 	mov	a,r2
   051C 24 FC              2237 	add	a,#0xff - 0x03
   051E 40 03              2238 	jc	00130$
   0520 02s04r6C           2239 	ljmp	00108$
   0523                    2240 00130$:
                           2241 ;	Peephole 300	removed redundant label 00115$
   0523 85*00 81           2242 	mov	sp,_bp
   0526 D0*00              2243 	pop	_bp
   0528 22                 2244 	ret
                           2245 ;------------------------------------------------------------
                           2246 ;Allocation info for local variables in function 'send_ack'
                           2247 ;------------------------------------------------------------
                           2248 ;------------------------------------------------------------
                           2249 ;	s:/elektronik/eib/c/fb_common/fb_prot.c:136: void send_ack(void)			// wartet auf Timer 1 wegen korrekter Positionierung und sendet ACK (0xCC)
                           2250 ;	-----------------------------------------
                           2251 ;	 function send_ack
                           2252 ;	-----------------------------------------
   0529                    2253 _send_ack:
                           2254 ;	s:/elektronik/eib/c/fb_common/fb_prot.c:138: while(!TF1) {}
   0529                    2255 00101$:
                           2256 ;	genIfx
                           2257 ;	genIfxJump
                           2258 ;	Peephole 108.d	removed ljmp by inverse jump logic
   0529 30 8F FD           2259 	jnb	_TCON_7,00101$
                           2260 ;	Peephole 300	removed redundant label 00108$
                           2261 ;	s:/elektronik/eib/c/fb_common/fb_prot.c:139: sendbyte(0xCC);
                           2262 ;	genCall
   052C 75 82 CC           2263 	mov	dpl,#0xCC
   052F 12s01r55           2264 	lcall	_sendbyte
   0532 E4                 2265 	clr	a
   0533 33                 2266 	rlc	a
                           2267 ;	Peephole 300	removed redundant label 00104$
   0534 22                 2268 	ret
                           2269 ;------------------------------------------------------------
                           2270 ;Allocation info for local variables in function 'ucd_opr'
                           2271 ;------------------------------------------------------------
                           2272 ;------------------------------------------------------------
                           2273 ;	s:/elektronik/eib/c/fb_common/fb_prot.c:146: void ucd_opr(void)		// UCD Verbindungsaufbau
                           2274 ;	-----------------------------------------
                           2275 ;	 function ucd_opr
                           2276 ;	-----------------------------------------
   0535                    2277 _ucd_opr:
                           2278 ;	s:/elektronik/eib/c/fb_common/fb_prot.c:148: if(!connected)		// wenn bereits verbunden: ignorieren
                           2279 ;	genIfx
                           2280 ;	genIfxJump
                           2281 ;	Peephole 108.e	removed ljmp by inverse jump logic
   0535 20*02 0E           2282 	jb	_connected,00103$
                           2283 ;	Peephole 300	removed redundant label 00106$
                           2284 ;	s:/elektronik/eib/c/fb_common/fb_prot.c:150: connected=1;
                           2285 ;	genAssign
   0538 D2*02              2286 	setb	_connected
                           2287 ;	s:/elektronik/eib/c/fb_common/fb_prot.c:151: conh=telegramm[1];		// phys. Adresse des Verbindungspartners
                           2288 ;	genPointerGet
                           2289 ;	genNearPointerGet
                           2290 ;	genDataPointerGet
   053A 85*01*1C           2291 	mov	_conh,(_telegramm + 0x0001)
                           2292 ;	s:/elektronik/eib/c/fb_common/fb_prot.c:152: conl=telegramm[2];
                           2293 ;	genPointerGet
                           2294 ;	genNearPointerGet
                           2295 ;	genDataPointerGet
   053D 85*02*1D           2296 	mov	_conl,(_telegramm + 0x0002)
                           2297 ;	s:/elektronik/eib/c/fb_common/fb_prot.c:153: send_ack();			// quittieren
                           2298 ;	genCall
   0540 12s05r29           2299 	lcall	_send_ack
                           2300 ;	s:/elektronik/eib/c/fb_common/fb_prot.c:154: pcount=1;			// Paketzähler zurücksetzen
                           2301 ;	genAssign
   0543 75*1E 01           2302 	mov	_pcount,#0x01
   0546                    2303 00103$:
   0546 22                 2304 	ret
                           2305 ;------------------------------------------------------------
                           2306 ;Allocation info for local variables in function 'ucd_clr'
                           2307 ;------------------------------------------------------------
                           2308 ;------------------------------------------------------------
                           2309 ;	s:/elektronik/eib/c/fb_common/fb_prot.c:159: void ucd_clr(void)		// UCD Verbindungsabbau
                           2310 ;	-----------------------------------------
                           2311 ;	 function ucd_clr
                           2312 ;	-----------------------------------------
   0547                    2313 _ucd_clr:
                           2314 ;	s:/elektronik/eib/c/fb_common/fb_prot.c:161: if(conh==telegramm[1] && conl==telegramm[2] && connected)	// nur abbauen, wenn verbunden und Anforderung vom Verbindungspartner, kein ACK senden
                           2315 ;	genAssign
                           2316 ;	genCmpEq
                           2317 ;	gencjneshort
   0547 E5*1C              2318 	mov	a,_conh
   0549 B5*01 02           2319 	cjne	a,0x0001 + _telegramm,00110$
   054C 80 01              2320 	sjmp	00111$
   054E                    2321 00110$:
                           2322 ;	Peephole 112.b	changed ljmp to sjmp
                           2323 ;	Peephole 251.b	replaced sjmp to ret with ret
   054E 22                 2324 	ret
   054F                    2325 00111$:
                           2326 ;	genAssign
                           2327 ;	genCmpEq
                           2328 ;	gencjneshort
   054F E5*1D              2329 	mov	a,_conl
   0551 B5*02 02           2330 	cjne	a,0x0002 + _telegramm,00112$
   0554 80 01              2331 	sjmp	00113$
   0556                    2332 00112$:
                           2333 ;	Peephole 112.b	changed ljmp to sjmp
                           2334 ;	Peephole 251.b	replaced sjmp to ret with ret
   0556 22                 2335 	ret
   0557                    2336 00113$:
                           2337 ;	genIfx
                           2338 ;	genIfxJump
                           2339 ;	Peephole 108.d	removed ljmp by inverse jump logic
                           2340 ;	s:/elektronik/eib/c/fb_common/fb_prot.c:163: connected=0;
                           2341 ;	genAssign
                           2342 ;	Peephole 250.a	using atomic test and clear
   0557 10*02 01           2343 	jbc	_connected,00114$
                           2344 ;	Peephole 251.b	replaced sjmp to ret with ret
   055A 22                 2345 	ret
   055B                    2346 00114$:
                           2347 ;	s:/elektronik/eib/c/fb_common/fb_prot.c:164: pcount=1;			// Paketzähler zurücksetzen
                           2348 ;	genAssign
   055B 75*1E 01           2349 	mov	_pcount,#0x01
                           2350 ;	Peephole 300	removed redundant label 00105$
   055E 22                 2351 	ret
                           2352 ;------------------------------------------------------------
                           2353 ;Allocation info for local variables in function 'ncd_quit'
                           2354 ;------------------------------------------------------------
                           2355 ;------------------------------------------------------------
                           2356 ;	s:/elektronik/eib/c/fb_common/fb_prot.c:169: void ncd_quit(void)			// NCD Quittierung zurück senden. Setzt telegramm Bytes 0 bis 6 !!!
                           2357 ;	-----------------------------------------
                           2358 ;	 function ncd_quit
                           2359 ;	-----------------------------------------
   055F                    2360 _ncd_quit:
                           2361 ;	s:/elektronik/eib/c/fb_common/fb_prot.c:171: telegramm[0]=0xB0;			// Control Byte			
                           2362 ;	genPointerSet
                           2363 ;	genNearPointerSet
                           2364 ;	genDataPointerSet
   055F 75*00 B0           2365 	mov	_telegramm,#0xB0
                           2366 ;	s:/elektronik/eib/c/fb_common/fb_prot.c:172: telegramm[3]=telegramm[1];		// Zieladresse wird Quelladresse
                           2367 ;	genPointerGet
                           2368 ;	genNearPointerGet
                           2369 ;	genDataPointerGet
   0562 AA*01              2370 	mov	r2,(_telegramm + 0x0001)
                           2371 ;	genPointerSet
                           2372 ;	genNearPointerSet
                           2373 ;	genDataPointerSet
   0564 8A*03              2374 	mov	(_telegramm + 0x0003),r2
                           2375 ;	s:/elektronik/eib/c/fb_common/fb_prot.c:173: telegramm[4]=telegramm[2];
                           2376 ;	genPointerGet
                           2377 ;	genNearPointerGet
                           2378 ;	genDataPointerGet
   0566 AA*02              2379 	mov	r2,(_telegramm + 0x0002)
                           2380 ;	genPointerSet
                           2381 ;	genNearPointerSet
                           2382 ;	genDataPointerSet
   0568 8A*04              2383 	mov	(_telegramm + 0x0004),r2
                           2384 ;	s:/elektronik/eib/c/fb_common/fb_prot.c:174: telegramm[1]=pah;			// Quelladresse ist phys. Adresse
                           2385 ;	genPointerSet
                           2386 ;	genNearPointerSet
                           2387 ;	genDataPointerSet
   056A 85*1A*01           2388 	mov	(_telegramm + 0x0001),_pah
                           2389 ;	s:/elektronik/eib/c/fb_common/fb_prot.c:175: telegramm[2]=pal;
                           2390 ;	genPointerSet
                           2391 ;	genNearPointerSet
                           2392 ;	genDataPointerSet
   056D 85*19*02           2393 	mov	(_telegramm + 0x0002),_pal
                           2394 ;	s:/elektronik/eib/c/fb_common/fb_prot.c:176: telegramm[5]=0x60;			// DRL
                           2395 ;	genPointerSet
                           2396 ;	genNearPointerSet
                           2397 ;	genDataPointerSet
   0570 75*05 60           2398 	mov	(_telegramm + 0x0005),#0x60
                           2399 ;	s:/elektronik/eib/c/fb_common/fb_prot.c:177: telegramm[6]|=0xC0;			// Bit 6 und 7 setzen (TCPI = 11 NCD Quittierung)
                           2400 ;	genAssign
                           2401 ;	genOr
   0573 74 C0              2402 	mov	a,#0xC0
   0575 45*06              2403 	orl	a,0x0006 + _telegramm
   0577 FA                 2404 	mov	r2,a
                           2405 ;	genPointerSet
                           2406 ;	genNearPointerSet
                           2407 ;	genDataPointerSet
   0578 8A*06              2408 	mov	(_telegramm + 0x0006),r2
                           2409 ;	s:/elektronik/eib/c/fb_common/fb_prot.c:178: telegramm[6]&=0xFE;			// Bit 0 löschen 
                           2410 ;	genAnd
   057A 74 FE              2411 	mov	a,#0xFE
   057C 5A                 2412 	anl	a,r2
                           2413 ;	genPointerSet
                           2414 ;	genNearPointerSet
                           2415 ;	genDataPointerSet
   057D F5*06              2416 	mov	(_telegramm + 0x0006),a
                           2417 ;	s:/elektronik/eib/c/fb_common/fb_prot.c:179: send_telegramm();
                           2418 ;	genCall
                           2419 ;	Peephole 253.b	replaced lcall/ret with ljmp
   057F 02s04r63           2420 	ljmp	_send_telegramm
                           2421 ;
                           2422 ;------------------------------------------------------------
                           2423 ;Allocation info for local variables in function 'read_masq'
                           2424 ;------------------------------------------------------------
                           2425 ;------------------------------------------------------------
                           2426 ;	s:/elektronik/eib/c/fb_common/fb_prot.c:183: void read_masq(void)			// Maskenversion senden
                           2427 ;	-----------------------------------------
                           2428 ;	 function read_masq
                           2429 ;	-----------------------------------------
   0582                    2430 _read_masq:
                           2431 ;	s:/elektronik/eib/c/fb_common/fb_prot.c:187: send_ack();
                           2432 ;	genCall
   0582 12s05r29           2433 	lcall	_send_ack
                           2434 ;	s:/elektronik/eib/c/fb_common/fb_prot.c:188: ncd_quit();				// NCD Quittierung senden
                           2435 ;	genCall
   0585 12s05r5F           2436 	lcall	_ncd_quit
                           2437 ;	s:/elektronik/eib/c/fb_common/fb_prot.c:190: telegramm[0]=0xB0;			// Control Byte
                           2438 ;	genPointerSet
                           2439 ;	genNearPointerSet
                           2440 ;	genDataPointerSet
   0588 75*00 B0           2441 	mov	_telegramm,#0xB0
                           2442 ;	s:/elektronik/eib/c/fb_common/fb_prot.c:192: telegramm[5]=0x63;			// DRL
                           2443 ;	genPointerSet
                           2444 ;	genNearPointerSet
                           2445 ;	genDataPointerSet
   058B 75*05 63           2446 	mov	(_telegramm + 0x0005),#0x63
                           2447 ;	s:/elektronik/eib/c/fb_common/fb_prot.c:193: telegramm[6]=0x43;
                           2448 ;	genPointerSet
                           2449 ;	genNearPointerSet
                           2450 ;	genDataPointerSet
   058E 75*06 43           2451 	mov	(_telegramm + 0x0006),#0x43
                           2452 ;	s:/elektronik/eib/c/fb_common/fb_prot.c:194: telegramm[7]=0x40;
                           2453 ;	genPointerSet
                           2454 ;	genNearPointerSet
                           2455 ;	genDataPointerSet
   0591 75*07 40           2456 	mov	(_telegramm + 0x0007),#0x40
                           2457 ;	s:/elektronik/eib/c/fb_common/fb_prot.c:195: telegramm[8]=0x00;
                           2458 ;	genPointerSet
                           2459 ;	genNearPointerSet
                           2460 ;	genDataPointerSet
   0594 75*08 00           2461 	mov	(_telegramm + 0x0008),#0x00
                           2462 ;	s:/elektronik/eib/c/fb_common/fb_prot.c:196: telegramm[9]=0x12;			// Maskenversion 1 = BCU1
                           2463 ;	genPointerSet
                           2464 ;	genNearPointerSet
                           2465 ;	genDataPointerSet
   0597 75*09 12           2466 	mov	(_telegramm + 0x0009),#0x12
                           2467 ;	s:/elektronik/eib/c/fb_common/fb_prot.c:197: send_telegramm();
                           2468 ;	genCall
                           2469 ;	Peephole 253.b	replaced lcall/ret with ljmp
   059A 02s04r63           2470 	ljmp	_send_telegramm
                           2471 ;
                           2472 ;------------------------------------------------------------
                           2473 ;Allocation info for local variables in function 'read_memory'
                           2474 ;------------------------------------------------------------
                           2475 ;ab                        Allocated to registers r2 
                           2476 ;n                         Allocated to registers r3 
                           2477 ;------------------------------------------------------------
                           2478 ;	s:/elektronik/eib/c/fb_common/fb_prot.c:202: void read_memory(void)			// read_memory_request - Speicher auslesen und senden
                           2479 ;	-----------------------------------------
                           2480 ;	 function read_memory
                           2481 ;	-----------------------------------------
   059D                    2482 _read_memory:
                           2483 ;	s:/elektronik/eib/c/fb_common/fb_prot.c:206: send_ack();				// erstmal quittieren
                           2484 ;	genCall
   059D 12s05r29           2485 	lcall	_send_ack
                           2486 ;	s:/elektronik/eib/c/fb_common/fb_prot.c:207: ab=telegramm[7];			// Anzahl Bytes
                           2487 ;	genAssign
                           2488 ;	genAssign
   05A0 AA*07              2489 	mov	r2,0x0007 + _telegramm
                           2490 ;	s:/elektronik/eib/c/fb_common/fb_prot.c:208: ncd_quit();
                           2491 ;	genCall
   05A2 C0 02              2492 	push	ar2
   05A4 12s05r5F           2493 	lcall	_ncd_quit
   05A7 D0 02              2494 	pop	ar2
                           2495 ;	s:/elektronik/eib/c/fb_common/fb_prot.c:210: for(n=0;n<ab;n++)
                           2496 ;	genAssign
   05A9 7B 00              2497 	mov	r3,#0x00
   05AB                    2498 00101$:
                           2499 ;	genCmpLt
                           2500 ;	genCmp
   05AB C3                 2501 	clr	c
   05AC EB                 2502 	mov	a,r3
   05AD 9A                 2503 	subb	a,r2
                           2504 ;	genIfxJump
                           2505 ;	Peephole 108.a	removed ljmp by inverse jump logic
   05AE 50 27              2506 	jnc	00104$
                           2507 ;	Peephole 300	removed redundant label 00110$
                           2508 ;	s:/elektronik/eib/c/fb_common/fb_prot.c:212: telegramm[n+10]=read_byte(telegramm[8],(telegramm[9]+n));    
                           2509 ;	genPlus
                           2510 ;     genPlusIncr
   05B0 74 0A              2511 	mov	a,#0x0A
                           2512 ;	Peephole 236.a	used r3 instead of ar3
   05B2 2B                 2513 	add	a,r3
                           2514 ;	genPlus
   05B3 24r00              2515 	add	a,#_telegramm
   05B5 F8                 2516 	mov	r0,a
                           2517 ;	genAssign
                           2518 ;	genPlus
                           2519 ;	Peephole 236.g	used r3 instead of ar3
   05B6 EB                 2520 	mov	a,r3
   05B7 25*09              2521 	add	a,0x0009 + _telegramm
   05B9 FC                 2522 	mov	r4,a
                           2523 ;	genAssign
                           2524 ;	genIpush
   05BA C0 02              2525 	push	ar2
   05BC C0 03              2526 	push	ar3
   05BE C0 00              2527 	push	ar0
   05C0 C0 04              2528 	push	ar4
                           2529 ;	genCall
   05C2 85*08 82           2530 	mov	dpl,0x0008 + _telegramm
   05C5 12s02r55           2531 	lcall	_read_byte
   05C8 AC 82              2532 	mov	r4,dpl
   05CA 15 81              2533 	dec	sp
   05CC D0 00              2534 	pop	ar0
   05CE D0 03              2535 	pop	ar3
   05D0 D0 02              2536 	pop	ar2
                           2537 ;	genPointerSet
                           2538 ;	genNearPointerSet
   05D2 A6 04              2539 	mov	@r0,ar4
                           2540 ;	s:/elektronik/eib/c/fb_common/fb_prot.c:210: for(n=0;n<ab;n++)
                           2541 ;	genPlus
                           2542 ;     genPlusIncr
   05D4 0B                 2543 	inc	r3
                           2544 ;	Peephole 112.b	changed ljmp to sjmp
   05D5 80 D4              2545 	sjmp	00101$
   05D7                    2546 00104$:
                           2547 ;	s:/elektronik/eib/c/fb_common/fb_prot.c:215: telegramm[0]=0xB0;			// read_memory_res senden
                           2548 ;	genPointerSet
                           2549 ;	genNearPointerSet
                           2550 ;	genDataPointerSet
   05D7 75*00 B0           2551 	mov	_telegramm,#0xB0
                           2552 ;	s:/elektronik/eib/c/fb_common/fb_prot.c:217: telegramm[5]=ab+0x63;		// DRL (Anzahl Bytes + 3)
                           2553 ;	genPlus
                           2554 ;     genPlusIncr
   05DA 74 63              2555 	mov	a,#0x63
                           2556 ;	Peephole 236.a	used r2 instead of ar2
   05DC 2A                 2557 	add	a,r2
                           2558 ;	genPointerSet
                           2559 ;	genNearPointerSet
                           2560 ;	genDataPointerSet
   05DD F5*05              2561 	mov	(_telegramm + 0x0005),a
                           2562 ;	s:/elektronik/eib/c/fb_common/fb_prot.c:218: telegramm[6]=(pcount<<2)|0x42;	// Paketzähler, TCPI und ersten beiden Befehlsbits
                           2563 ;	genLeftShift
                           2564 ;	genLeftShiftLiteral
                           2565 ;	genlshOne
   05DF E5*1E              2566 	mov	a,_pcount
                           2567 ;	Peephole 254	optimized left shift
   05E1 25*1E              2568 	add	a,_pcount
   05E3 25 E0              2569 	add	a,acc
   05E5 FB                 2570 	mov	r3,a
                           2571 ;	genOr
   05E6 74 42              2572 	mov	a,#0x42
   05E8 4B                 2573 	orl	a,r3
                           2574 ;	genPointerSet
                           2575 ;	genNearPointerSet
                           2576 ;	genDataPointerSet
   05E9 F5*06              2577 	mov	(_telegramm + 0x0006),a
                           2578 ;	s:/elektronik/eib/c/fb_common/fb_prot.c:219: telegramm[7]=ab|0x40;		// letzten 2 Befehlsbits
                           2579 ;	genOr
   05EB 74 40              2580 	mov	a,#0x40
   05ED 4A                 2581 	orl	a,r2
                           2582 ;	genPointerSet
                           2583 ;	genNearPointerSet
                           2584 ;	genDataPointerSet
   05EE F5*07              2585 	mov	(_telegramm + 0x0007),a
                           2586 ;	s:/elektronik/eib/c/fb_common/fb_prot.c:220: send_telegramm();
                           2587 ;	genCall
   05F0 12s04r63           2588 	lcall	_send_telegramm
                           2589 ;	s:/elektronik/eib/c/fb_common/fb_prot.c:222: pcount++;				// Paketzähler erhöhen
                           2590 ;	genPlus
                           2591 ;     genPlusIncr
   05F3 05*1E              2592 	inc	_pcount
                           2593 ;	s:/elektronik/eib/c/fb_common/fb_prot.c:223: pcount&=0x0F;				// max. 15
                           2594 ;	genAnd
   05F5 53r1E 0F           2595 	anl	_pcount,#0x0F
                           2596 ;	Peephole 300	removed redundant label 00105$
   05F8 22                 2597 	ret
                           2598 ;------------------------------------------------------------
                           2599 ;Allocation info for local variables in function 'write_memory'
                           2600 ;------------------------------------------------------------
                           2601 ;ab                        Allocated to registers r2 
                           2602 ;n                         Allocated to registers r3 
                           2603 ;------------------------------------------------------------
                           2604 ;	s:/elektronik/eib/c/fb_common/fb_prot.c:227: void write_memory(void)			// write_memory_request - empfangene Daten in Speicher schreiben
                           2605 ;	-----------------------------------------
                           2606 ;	 function write_memory
                           2607 ;	-----------------------------------------
   05F9                    2608 _write_memory:
                           2609 ;	s:/elektronik/eib/c/fb_common/fb_prot.c:231: send_ack();
                           2610 ;	genCall
   05F9 12s05r29           2611 	lcall	_send_ack
                           2612 ;	s:/elektronik/eib/c/fb_common/fb_prot.c:232: ab=telegramm[7]&0x0F;			// Anzahl Bytes
                           2613 ;	genAssign
                           2614 ;	genAnd
   05FC 74 0F              2615 	mov	a,#0x0F
   05FE 55*07              2616 	anl	a,0x0007 + _telegramm
   0600 FA                 2617 	mov	r2,a
                           2618 ;	s:/elektronik/eib/c/fb_common/fb_prot.c:233: ncd_quit();
                           2619 ;	genCall
   0601 C0 02              2620 	push	ar2
   0603 12s05r5F           2621 	lcall	_ncd_quit
   0606 D0 02              2622 	pop	ar2
                           2623 ;	s:/elektronik/eib/c/fb_common/fb_prot.c:235: start_writecycle();
                           2624 ;	genCall
   0608 C0 02              2625 	push	ar2
   060A 12s01rF6           2626 	lcall	_start_writecycle
   060D D0 02              2627 	pop	ar2
                           2628 ;	s:/elektronik/eib/c/fb_common/fb_prot.c:236: for(n=0;n<ab;n++) 
                           2629 ;	genAssign
   060F 7B 00              2630 	mov	r3,#0x00
   0611                    2631 00104$:
                           2632 ;	genCmpLt
                           2633 ;	genCmp
   0611 C3                 2634 	clr	c
   0612 EB                 2635 	mov	a,r3
   0613 9A                 2636 	subb	a,r2
                           2637 ;	genIfxJump
                           2638 ;	Peephole 108.a	removed ljmp by inverse jump logic
   0614 50 67              2639 	jnc	00107$
                           2640 ;	Peephole 300	removed redundant label 00115$
                           2641 ;	s:/elektronik/eib/c/fb_common/fb_prot.c:238: write_byte(telegramm[8],telegramm[9]+n,telegramm[n+10]);
                           2642 ;	genPlus
                           2643 ;     genPlusIncr
   0616 74 0A              2644 	mov	a,#0x0A
                           2645 ;	Peephole 236.a	used r3 instead of ar3
   0618 2B                 2646 	add	a,r3
                           2647 ;	genPlus
   0619 24r00              2648 	add	a,#_telegramm
   061B F8                 2649 	mov	r0,a
                           2650 ;	genPointerGet
                           2651 ;	genNearPointerGet
   061C 86 04              2652 	mov	ar4,@r0
                           2653 ;	genAssign
                           2654 ;	genPlus
                           2655 ;	Peephole 236.g	used r3 instead of ar3
   061E EB                 2656 	mov	a,r3
   061F 25*09              2657 	add	a,0x0009 + _telegramm
   0621 FD                 2658 	mov	r5,a
                           2659 ;	genAssign
                           2660 ;	genIpush
   0622 C0 02              2661 	push	ar2
   0624 C0 03              2662 	push	ar3
   0626 C0 04              2663 	push	ar4
                           2664 ;	genIpush
   0628 C0 05              2665 	push	ar5
                           2666 ;	genCall
   062A 85*08 82           2667 	mov	dpl,0x0008 + _telegramm
   062D 12s01rFE           2668 	lcall	_write_byte
   0630 15 81              2669 	dec	sp
   0632 15 81              2670 	dec	sp
   0634 D0 03              2671 	pop	ar3
   0636 D0 02              2672 	pop	ar2
                           2673 ;	s:/elektronik/eib/c/fb_common/fb_prot.c:239: if ((((telegramm[9]+n)&0x3F)==0x3F) && n!=(ab-1))		// Ende des 64-Byte Pageregisters, also zwischendurch flashen
                           2674 ;	genAssign
                           2675 ;	genCast
   0638 AC*09              2676 	mov	r4,0x0009 + _telegramm
   063A 7D 00              2677 	mov	r5,#0x00
                           2678 ;	genCast
   063C 8B 06              2679 	mov	ar6,r3
   063E 7F 00              2680 	mov	r7,#0x00
                           2681 ;	genPlus
                           2682 ;	Peephole 236.g	used r6 instead of ar6
   0640 EE                 2683 	mov	a,r6
                           2684 ;	Peephole 236.a	used r4 instead of ar4
   0641 2C                 2685 	add	a,r4
   0642 FC                 2686 	mov	r4,a
                           2687 ;	Peephole 236.g	used r7 instead of ar7
   0643 EF                 2688 	mov	a,r7
                           2689 ;	Peephole 236.b	used r5 instead of ar5
   0644 3D                 2690 	addc	a,r5
   0645 FD                 2691 	mov	r5,a
                           2692 ;	genAnd
   0646 53 04 3F           2693 	anl	ar4,#0x3F
   0649 7D 00              2694 	mov	r5,#0x00
                           2695 ;	genCmpEq
                           2696 ;	gencjneshort
                           2697 ;	Peephole 112.b	changed ljmp to sjmp
                           2698 ;	Peephole 198.a	optimized misc jump sequence
   064B BC 3F 2C           2699 	cjne	r4,#0x3F,00106$
   064E BD 00 29           2700 	cjne	r5,#0x00,00106$
                           2701 ;	Peephole 200.b	removed redundant sjmp
                           2702 ;	Peephole 300	removed redundant label 00116$
                           2703 ;	Peephole 300	removed redundant label 00117$
                           2704 ;	genCast
   0651 8A 04              2705 	mov	ar4,r2
   0653 7D 00              2706 	mov	r5,#0x00
                           2707 ;	genMinus
                           2708 ;	genMinusDec
   0655 1C                 2709 	dec	r4
   0656 BC FF 01           2710 	cjne	r4,#0xff,00118$
   0659 1D                 2711 	dec	r5
   065A                    2712 00118$:
                           2713 ;	genCmpEq
                           2714 ;	gencjneshort
   065A EE                 2715 	mov	a,r6
   065B B5 04 06           2716 	cjne	a,ar4,00119$
   065E EF                 2717 	mov	a,r7
   065F B5 05 02           2718 	cjne	a,ar5,00119$
                           2719 ;	Peephole 112.b	changed ljmp to sjmp
   0662 80 16              2720 	sjmp	00106$
   0664                    2721 00119$:
                           2722 ;	s:/elektronik/eib/c/fb_common/fb_prot.c:241: stop_writecycle();
                           2723 ;	genCall
   0664 C0 02              2724 	push	ar2
   0666 C0 03              2725 	push	ar3
   0668 12s01rFA           2726 	lcall	_stop_writecycle
   066B D0 03              2727 	pop	ar3
   066D D0 02              2728 	pop	ar2
                           2729 ;	s:/elektronik/eib/c/fb_common/fb_prot.c:242: start_writecycle();
                           2730 ;	genCall
   066F C0 02              2731 	push	ar2
   0671 C0 03              2732 	push	ar3
   0673 12s01rF6           2733 	lcall	_start_writecycle
   0676 D0 03              2734 	pop	ar3
   0678 D0 02              2735 	pop	ar2
   067A                    2736 00106$:
                           2737 ;	s:/elektronik/eib/c/fb_common/fb_prot.c:236: for(n=0;n<ab;n++) 
                           2738 ;	genPlus
                           2739 ;     genPlusIncr
   067A 0B                 2740 	inc	r3
                           2741 ;	Peephole 112.b	changed ljmp to sjmp
   067B 80 94              2742 	sjmp	00104$
   067D                    2743 00107$:
                           2744 ;	s:/elektronik/eib/c/fb_common/fb_prot.c:245: stop_writecycle(); 
                           2745 ;	genCall
                           2746 ;	Peephole 253.b	replaced lcall/ret with ljmp
   067D 02s01rFA           2747 	ljmp	_stop_writecycle
                           2748 ;
                           2749 ;------------------------------------------------------------
                           2750 ;Allocation info for local variables in function 'set_pa'
                           2751 ;------------------------------------------------------------
                           2752 ;------------------------------------------------------------
                           2753 ;	s:/elektronik/eib/c/fb_common/fb_prot.c:249: void set_pa(void)			// neue phys. Adresse programmieren
                           2754 ;	-----------------------------------------
                           2755 ;	 function set_pa
                           2756 ;	-----------------------------------------
   0680                    2757 _set_pa:
                           2758 ;	s:/elektronik/eib/c/fb_common/fb_prot.c:251: pah=telegramm[8];
                           2759 ;	genPointerGet
                           2760 ;	genNearPointerGet
                           2761 ;	genDataPointerGet
   0680 85*08*1A           2762 	mov	_pah,(_telegramm + 0x0008)
                           2763 ;	s:/elektronik/eib/c/fb_common/fb_prot.c:252: pal=telegramm[9];
                           2764 ;	genPointerGet
                           2765 ;	genNearPointerGet
                           2766 ;	genDataPointerGet
   0683 85*09*19           2767 	mov	_pal,(_telegramm + 0x0009)
                           2768 ;	s:/elektronik/eib/c/fb_common/fb_prot.c:253: start_writecycle();
                           2769 ;	genCall
   0686 12s01rF6           2770 	lcall	_start_writecycle
                           2771 ;	s:/elektronik/eib/c/fb_common/fb_prot.c:254: write_byte(0x01,ADDRTAB+1,pah);		// in Flash schreiben
                           2772 ;	genIpush
   0689 C0*1A              2773 	push	_pah
                           2774 ;	genIpush
   068B 74 17              2775 	mov	a,#0x17
   068D C0 E0              2776 	push	acc
                           2777 ;	genCall
   068F 75 82 01           2778 	mov	dpl,#0x01
   0692 12s01rFE           2779 	lcall	_write_byte
   0695 15 81              2780 	dec	sp
   0697 15 81              2781 	dec	sp
                           2782 ;	s:/elektronik/eib/c/fb_common/fb_prot.c:255: write_byte(0x01,ADDRTAB+2,pal);
                           2783 ;	genIpush
   0699 C0*19              2784 	push	_pal
                           2785 ;	genIpush
   069B 74 18              2786 	mov	a,#0x18
   069D C0 E0              2787 	push	acc
                           2788 ;	genCall
   069F 75 82 01           2789 	mov	dpl,#0x01
   06A2 12s01rFE           2790 	lcall	_write_byte
   06A5 15 81              2791 	dec	sp
   06A7 15 81              2792 	dec	sp
                           2793 ;	s:/elektronik/eib/c/fb_common/fb_prot.c:256: stop_writecycle();
                           2794 ;	genCall
                           2795 ;	Peephole 253.b	replaced lcall/ret with ljmp
   06A9 02s01rFA           2796 	ljmp	_stop_writecycle
                           2797 ;
                           2798 ;------------------------------------------------------------
                           2799 ;Allocation info for local variables in function 'read_pa'
                           2800 ;------------------------------------------------------------
                           2801 ;------------------------------------------------------------
                           2802 ;	s:/elektronik/eib/c/fb_common/fb_prot.c:260: void read_pa(void)			// phys. Adresse senden
                           2803 ;	-----------------------------------------
                           2804 ;	 function read_pa
                           2805 ;	-----------------------------------------
   06AC                    2806 _read_pa:
                           2807 ;	s:/elektronik/eib/c/fb_common/fb_prot.c:264: send_ack();
                           2808 ;	genCall
   06AC 12s05r29           2809 	lcall	_send_ack
                           2810 ;	s:/elektronik/eib/c/fb_common/fb_prot.c:266: telegramm[0]=0xB0;			// read_memory_res senden
                           2811 ;	genPointerSet
                           2812 ;	genNearPointerSet
                           2813 ;	genDataPointerSet
   06AF 75*00 B0           2814 	mov	_telegramm,#0xB0
                           2815 ;	s:/elektronik/eib/c/fb_common/fb_prot.c:268: telegramm[1]=pah;
                           2816 ;	genPointerSet
                           2817 ;	genNearPointerSet
                           2818 ;	genDataPointerSet
   06B2 85*1A*01           2819 	mov	(_telegramm + 0x0001),_pah
                           2820 ;	s:/elektronik/eib/c/fb_common/fb_prot.c:269: telegramm[2]=pal;
                           2821 ;	genPointerSet
                           2822 ;	genNearPointerSet
                           2823 ;	genDataPointerSet
   06B5 85*19*02           2824 	mov	(_telegramm + 0x0002),_pal
                           2825 ;	s:/elektronik/eib/c/fb_common/fb_prot.c:270: telegramm[3]=0x00;
                           2826 ;	genPointerSet
                           2827 ;	genNearPointerSet
                           2828 ;	genDataPointerSet
   06B8 75*03 00           2829 	mov	(_telegramm + 0x0003),#0x00
                           2830 ;	s:/elektronik/eib/c/fb_common/fb_prot.c:271: telegramm[4]=0x00;			
                           2831 ;	genPointerSet
                           2832 ;	genNearPointerSet
                           2833 ;	genDataPointerSet
   06BB 75*04 00           2834 	mov	(_telegramm + 0x0004),#0x00
                           2835 ;	s:/elektronik/eib/c/fb_common/fb_prot.c:272: telegramm[5]=0xE1;			// DRL
                           2836 ;	genPointerSet
                           2837 ;	genNearPointerSet
                           2838 ;	genDataPointerSet
   06BE 75*05 E1           2839 	mov	(_telegramm + 0x0005),#0xE1
                           2840 ;	s:/elektronik/eib/c/fb_common/fb_prot.c:273: telegramm[6]=0x01;		
                           2841 ;	genPointerSet
                           2842 ;	genNearPointerSet
                           2843 ;	genDataPointerSet
   06C1 75*06 01           2844 	mov	(_telegramm + 0x0006),#0x01
                           2845 ;	s:/elektronik/eib/c/fb_common/fb_prot.c:274: telegramm[7]=0x40;
                           2846 ;	genPointerSet
                           2847 ;	genNearPointerSet
                           2848 ;	genDataPointerSet
   06C4 75*07 40           2849 	mov	(_telegramm + 0x0007),#0x40
                           2850 ;	s:/elektronik/eib/c/fb_common/fb_prot.c:275: send_telegramm();
                           2851 ;	genCall
                           2852 ;	Peephole 253.b	replaced lcall/ret with ljmp
   06C7 02s04r63           2853 	ljmp	_send_telegramm
                           2854 ;
                           2855 ;------------------------------------------------------------
                           2856 ;Allocation info for local variables in function 'read_objflags'
                           2857 ;------------------------------------------------------------
                           2858 ;objno                     Allocated to registers r2 
                           2859 ;ctp                       Allocated to registers 
                           2860 ;addr                      Allocated to registers 
                           2861 ;flags                     Allocated to registers 
                           2862 ;------------------------------------------------------------
                           2863 ;	s:/elektronik/eib/c/fb_common/fb_prot.c:280: unsigned char read_objflags(unsigned char objno)	// Objektflags lesen
                           2864 ;	-----------------------------------------
                           2865 ;	 function read_objflags
                           2866 ;	-----------------------------------------
   06CA                    2867 _read_objflags:
                           2868 ;	genReceive
   06CA AA 82              2869 	mov	r2,dpl
                           2870 ;	s:/elektronik/eib/c/fb_common/fb_prot.c:284: ctp=read_byte(0x01,COMMSTABPTR);		// COMMSTAB Pointer
                           2871 ;	genIpush
   06CC C0 02              2872 	push	ar2
   06CE 74 12              2873 	mov	a,#0x12
   06D0 C0 E0              2874 	push	acc
                           2875 ;	genCall
   06D2 75 82 01           2876 	mov	dpl,#0x01
   06D5 12s02r55           2877 	lcall	_read_byte
   06D8 AB 82              2878 	mov	r3,dpl
   06DA 15 81              2879 	dec	sp
   06DC D0 02              2880 	pop	ar2
                           2881 ;	s:/elektronik/eib/c/fb_common/fb_prot.c:285: addr=ctp+3+3*objno;
                           2882 ;	genPlus
                           2883 ;     genPlusIncr
   06DE 0B                 2884 	inc	r3
   06DF 0B                 2885 	inc	r3
   06E0 0B                 2886 	inc	r3
                           2887 ;	genMult
                           2888 ;	genMultOneByte
   06E1 EA                 2889 	mov	a,r2
   06E2 75 F0 03           2890 	mov	b,#0x03
   06E5 A4                 2891 	mul	ab
                           2892 ;	genPlus
   06E6 FA                 2893 	mov	r2,a
                           2894 ;	Peephole 177.b	removed redundant mov
                           2895 ;	Peephole 236.a	used r3 instead of ar3
   06E7 2B                 2896 	add	a,r3
   06E8 FB                 2897 	mov	r3,a
                           2898 ;	s:/elektronik/eib/c/fb_common/fb_prot.c:286: flags=read_byte(0x01,addr);	// Objektflags
                           2899 ;	genIpush
   06E9 C0 03              2900 	push	ar3
                           2901 ;	genCall
   06EB 75 82 01           2902 	mov	dpl,#0x01
   06EE 12s02r55           2903 	lcall	_read_byte
   06F1 AA 82              2904 	mov	r2,dpl
   06F3 15 81              2905 	dec	sp
                           2906 ;	genAssign
   06F5 8A 82              2907 	mov	dpl,r2
                           2908 ;	s:/elektronik/eib/c/fb_common/fb_prot.c:287: return(flags);
                           2909 ;	genRet
                           2910 ;	Peephole 300	removed redundant label 00101$
   06F7 22                 2911 	ret
                           2912 ;------------------------------------------------------------
                           2913 ;Allocation info for local variables in function 'find_ga'
                           2914 ;------------------------------------------------------------
                           2915 ;objno                     Allocated to registers r2 
                           2916 ;n                         Allocated to registers r7 
                           2917 ;assno                     Allocated to registers r5 
                           2918 ;asstab                    Allocated to registers r4 
                           2919 ;gapos                     Allocated to registers r3 
                           2920 ;gal                       Allocated to registers r3 
                           2921 ;gah                       Allocated to registers r2 
                           2922 ;ga                        Allocated to registers r3 r2 
                           2923 ;sloc0                     Allocated to stack - offset 1
                           2924 ;------------------------------------------------------------
                           2925 ;	s:/elektronik/eib/c/fb_common/fb_prot.c:291: int find_ga(unsigned char objno)		// Gruppenadresse über Assoziationstabelle finden (letzter Eintrag, falls mehrere)
                           2926 ;	-----------------------------------------
                           2927 ;	 function find_ga
                           2928 ;	-----------------------------------------
   06F8                    2929 _find_ga:
   06F8 C0*00              2930 	push	_bp
   06FA 85 81*00           2931 	mov	_bp,sp
   06FD 05 81              2932 	inc	sp
                           2933 ;	genReceive
   06FF AA 82              2934 	mov	r2,dpl
                           2935 ;	s:/elektronik/eib/c/fb_common/fb_prot.c:296: gapos=0;
                           2936 ;	genAssign
   0701 7B 00              2937 	mov	r3,#0x00
                           2938 ;	s:/elektronik/eib/c/fb_common/fb_prot.c:297: asstab=read_byte(0x01,ASSOCTABPTR);
                           2939 ;	genIpush
   0703 C0 02              2940 	push	ar2
   0705 C0 03              2941 	push	ar3
   0707 74 11              2942 	mov	a,#0x11
   0709 C0 E0              2943 	push	acc
                           2944 ;	genCall
   070B 75 82 01           2945 	mov	dpl,#0x01
   070E 12s02r55           2946 	lcall	_read_byte
   0711 AC 82              2947 	mov	r4,dpl
   0713 15 81              2948 	dec	sp
   0715 D0 03              2949 	pop	ar3
   0717 D0 02              2950 	pop	ar2
                           2951 ;	genAssign
                           2952 ;	s:/elektronik/eib/c/fb_common/fb_prot.c:298: assno=read_byte(0x01,asstab);
                           2953 ;	genIpush
   0719 C0 02              2954 	push	ar2
   071B C0 03              2955 	push	ar3
   071D C0 04              2956 	push	ar4
   071F C0 04              2957 	push	ar4
                           2958 ;	genCall
   0721 75 82 01           2959 	mov	dpl,#0x01
   0724 12s02r55           2960 	lcall	_read_byte
   0727 AD 82              2961 	mov	r5,dpl
   0729 15 81              2962 	dec	sp
   072B D0 04              2963 	pop	ar4
   072D D0 03              2964 	pop	ar3
   072F D0 02              2965 	pop	ar2
                           2966 ;	genAssign
                           2967 ;	s:/elektronik/eib/c/fb_common/fb_prot.c:299: for(n=0;n<assno;n++)
                           2968 ;	genPlus
                           2969 ;     genPlusIncr
   0731 74 01              2970 	mov	a,#0x01
                           2971 ;	Peephole 236.a	used r4 instead of ar4
   0733 2C                 2972 	add	a,r4
   0734 FE                 2973 	mov	r6,a
                           2974 ;	genPlus
                           2975 ;     genPlusIncr
   0735 0C                 2976 	inc	r4
   0736 0C                 2977 	inc	r4
                           2978 ;	genAssign
   0737 7F 00              2979 	mov	r7,#0x00
   0739                    2980 00106$:
                           2981 ;	genCmpLt
                           2982 ;	genCmp
   0739 C3                 2983 	clr	c
   073A EF                 2984 	mov	a,r7
   073B 9D                 2985 	subb	a,r5
                           2986 ;	genIfxJump
                           2987 ;	Peephole 108.a	removed ljmp by inverse jump logic
   073C 50 66              2988 	jnc	00109$
                           2989 ;	Peephole 300	removed redundant label 00117$
                           2990 ;	s:/elektronik/eib/c/fb_common/fb_prot.c:301: if(read_byte(0x01,asstab+2+2*n)==objno)
                           2991 ;	genIpush
   073E C0 03              2992 	push	ar3
                           2993 ;	genLeftShift
                           2994 ;	genLeftShiftLiteral
   0740 A8*00              2995 	mov	r0,_bp
   0742 08                 2996 	inc	r0
                           2997 ;	genlshOne
   0743 EF                 2998 	mov	a,r7
                           2999 ;	Peephole 254	optimized left shift
   0744 2F                 3000 	add	a,r7
   0745 F6                 3001 	mov	@r0,a
                           3002 ;	genPlus
   0746 A8*00              3003 	mov	r0,_bp
   0748 08                 3004 	inc	r0
   0749 E6                 3005 	mov	a,@r0
                           3006 ;	Peephole 236.a	used r4 instead of ar4
   074A 2C                 3007 	add	a,r4
   074B FB                 3008 	mov	r3,a
                           3009 ;	genIpush
   074C C0 02              3010 	push	ar2
   074E C0 04              3011 	push	ar4
   0750 C0 05              3012 	push	ar5
   0752 C0 06              3013 	push	ar6
   0754 C0 07              3014 	push	ar7
   0756 C0 03              3015 	push	ar3
                           3016 ;	genCall
   0758 75 82 01           3017 	mov	dpl,#0x01
   075B 12s02r55           3018 	lcall	_read_byte
   075E AB 82              3019 	mov	r3,dpl
   0760 15 81              3020 	dec	sp
   0762 D0 07              3021 	pop	ar7
   0764 D0 06              3022 	pop	ar6
   0766 D0 05              3023 	pop	ar5
   0768 D0 04              3024 	pop	ar4
   076A D0 02              3025 	pop	ar2
                           3026 ;	genCmpEq
                           3027 ;	gencjne
                           3028 ;	gencjneshort
   076C EB                 3029 	mov	a,r3
   076D B5 02 04           3030 	cjne	a,ar2,00118$
   0770 74 01              3031 	mov	a,#0x01
   0772 80 01              3032 	sjmp	00119$
   0774                    3033 00118$:
   0774 E4                 3034 	clr	a
   0775                    3035 00119$:
                           3036 ;	genIpop
   0775 D0 03              3037 	pop	ar3
                           3038 ;	genIfx
                           3039 ;	genIfxJump
                           3040 ;	Peephole 108.c	removed ljmp by inverse jump logic
   0777 60 28              3041 	jz	00108$
                           3042 ;	Peephole 300	removed redundant label 00120$
                           3043 ;	s:/elektronik/eib/c/fb_common/fb_prot.c:303: gapos=read_byte(0x01,asstab+1+2*n);
                           3044 ;	genIpush
   0779 C0 04              3045 	push	ar4
                           3046 ;	genPlus
   077B A8*00              3047 	mov	r0,_bp
   077D 08                 3048 	inc	r0
   077E E6                 3049 	mov	a,@r0
                           3050 ;	Peephole 236.a	used r6 instead of ar6
   077F 2E                 3051 	add	a,r6
   0780 FC                 3052 	mov	r4,a
                           3053 ;	genIpush
   0781 C0 02              3054 	push	ar2
   0783 C0 05              3055 	push	ar5
   0785 C0 06              3056 	push	ar6
   0787 C0 07              3057 	push	ar7
   0789 C0 04              3058 	push	ar4
                           3059 ;	genCall
   078B 75 82 01           3060 	mov	dpl,#0x01
   078E 12s02r55           3061 	lcall	_read_byte
   0791 AC 82              3062 	mov	r4,dpl
   0793 15 81              3063 	dec	sp
   0795 D0 07              3064 	pop	ar7
   0797 D0 06              3065 	pop	ar6
   0799 D0 05              3066 	pop	ar5
   079B D0 02              3067 	pop	ar2
                           3068 ;	genAssign
   079D 8C 03              3069 	mov	ar3,r4
                           3070 ;	s:/elektronik/eib/c/fb_common/fb_prot.c:316: return(ga);
                           3071 ;	genIpop
   079F D0 04              3072 	pop	ar4
                           3073 ;	s:/elektronik/eib/c/fb_common/fb_prot.c:303: gapos=read_byte(0x01,asstab+1+2*n);
   07A1                    3074 00108$:
                           3075 ;	s:/elektronik/eib/c/fb_common/fb_prot.c:299: for(n=0;n<assno;n++)
                           3076 ;	genPlus
                           3077 ;     genPlusIncr
   07A1 0F                 3078 	inc	r7
                           3079 ;	Peephole 112.b	changed ljmp to sjmp
   07A2 80 95              3080 	sjmp	00106$
   07A4                    3081 00109$:
                           3082 ;	s:/elektronik/eib/c/fb_common/fb_prot.c:306: if(gapos!=0)
                           3083 ;	genCmpEq
                           3084 ;	gencjneshort
   07A4 BB 00 02           3085 	cjne	r3,#0x00,00121$
                           3086 ;	Peephole 112.b	changed ljmp to sjmp
   07A7 80 3B              3087 	sjmp	00104$
   07A9                    3088 00121$:
                           3089 ;	s:/elektronik/eib/c/fb_common/fb_prot.c:308: gah=read_byte(0x01,ADDRTAB+1+gapos*2);
                           3090 ;	genLeftShift
                           3091 ;	genLeftShiftLiteral
                           3092 ;	genlshOne
   07A9 EB                 3093 	mov	a,r3
                           3094 ;	Peephole 254	optimized left shift
   07AA 2B                 3095 	add	a,r3
   07AB FB                 3096 	mov	r3,a
                           3097 ;	genPlus
                           3098 ;     genPlusIncr
   07AC 74 17              3099 	mov	a,#0x17
                           3100 ;	Peephole 236.a	used r3 instead of ar3
   07AE 2B                 3101 	add	a,r3
   07AF FA                 3102 	mov	r2,a
                           3103 ;	genIpush
   07B0 C0 03              3104 	push	ar3
   07B2 C0 02              3105 	push	ar2
                           3106 ;	genCall
   07B4 75 82 01           3107 	mov	dpl,#0x01
   07B7 12s02r55           3108 	lcall	_read_byte
   07BA AA 82              3109 	mov	r2,dpl
   07BC 15 81              3110 	dec	sp
   07BE D0 03              3111 	pop	ar3
                           3112 ;	genAssign
                           3113 ;	s:/elektronik/eib/c/fb_common/fb_prot.c:309: gal=read_byte(0x01,ADDRTAB+2+gapos*2);
                           3114 ;	genPlus
                           3115 ;     genPlusIncr
   07C0 74 18              3116 	mov	a,#0x18
                           3117 ;	Peephole 236.a	used r3 instead of ar3
   07C2 2B                 3118 	add	a,r3
   07C3 FB                 3119 	mov	r3,a
                           3120 ;	genIpush
   07C4 C0 02              3121 	push	ar2
   07C6 C0 03              3122 	push	ar3
                           3123 ;	genCall
   07C8 75 82 01           3124 	mov	dpl,#0x01
   07CB 12s02r55           3125 	lcall	_read_byte
   07CE AB 82              3126 	mov	r3,dpl
   07D0 15 81              3127 	dec	sp
   07D2 D0 02              3128 	pop	ar2
                           3129 ;	genAssign
                           3130 ;	s:/elektronik/eib/c/fb_common/fb_prot.c:310: ga=gal+256*gah;
                           3131 ;	genCast
   07D4 7C 00              3132 	mov	r4,#0x00
                           3133 ;	genCast
                           3134 ;	genLeftShift
                           3135 ;	genLeftShiftLiteral
                           3136 ;	genlshTwo
                           3137 ;	peephole 177.e	removed redundant move
   07D6 8A 05              3138 	mov	ar5,r2
   07D8 7A 00              3139 	mov	r2,#0x00
                           3140 ;	genPlus
                           3141 ;	Peephole 236.g	used r2 instead of ar2
   07DA EA                 3142 	mov	a,r2
                           3143 ;	Peephole 236.a	used r3 instead of ar3
   07DB 2B                 3144 	add	a,r3
   07DC FB                 3145 	mov	r3,a
                           3146 ;	Peephole 236.g	used r5 instead of ar5
   07DD ED                 3147 	mov	a,r5
                           3148 ;	Peephole 236.b	used r4 instead of ar4
   07DE 3C                 3149 	addc	a,r4
   07DF FC                 3150 	mov	r4,a
                           3151 ;	genAssign
   07E0 8C 02              3152 	mov	ar2,r4
                           3153 ;	Peephole 112.b	changed ljmp to sjmp
   07E2 80 04              3154 	sjmp	00105$
   07E4                    3155 00104$:
                           3156 ;	s:/elektronik/eib/c/fb_common/fb_prot.c:314: ga=0;
                           3157 ;	genAssign
   07E4 7B 00              3158 	mov	r3,#0x00
   07E6 7A 00              3159 	mov	r2,#0x00
   07E8                    3160 00105$:
                           3161 ;	s:/elektronik/eib/c/fb_common/fb_prot.c:316: return(ga);
                           3162 ;	genRet
   07E8 8B 82              3163 	mov	dpl,r3
   07EA 8A 83              3164 	mov	dph,r2
                           3165 ;	Peephole 300	removed redundant label 00110$
   07EC 85*00 81           3166 	mov	sp,_bp
   07EF D0*00              3167 	pop	_bp
   07F1 22                 3168 	ret
                           3169 ;------------------------------------------------------------
                           3170 ;Allocation info for local variables in function 'gapos_in_gat'
                           3171 ;------------------------------------------------------------
                           3172 ;gal                       Allocated to stack - offset -3
                           3173 ;gah                       Allocated to registers r2 
                           3174 ;ga_position               Allocated to registers r4 
                           3175 ;ga_count                  Allocated to registers r3 
                           3176 ;n                         Allocated to registers 
                           3177 ;------------------------------------------------------------
                           3178 ;	s:/elektronik/eib/c/fb_common/fb_prot.c:320: unsigned char gapos_in_gat(unsigned char gah, unsigned char gal)
                           3179 ;	-----------------------------------------
                           3180 ;	 function gapos_in_gat
                           3181 ;	-----------------------------------------
   07F2                    3182 _gapos_in_gat:
   07F2 C0*00              3183 	push	_bp
   07F4 85 81*00           3184 	mov	_bp,sp
                           3185 ;	genReceive
   07F7 AA 82              3186 	mov	r2,dpl
                           3187 ;	s:/elektronik/eib/c/fb_common/fb_prot.c:324: ga_count=read_byte(0x01,ADDRTAB);
                           3188 ;	genIpush
   07F9 C0 02              3189 	push	ar2
   07FB 74 16              3190 	mov	a,#0x16
   07FD C0 E0              3191 	push	acc
                           3192 ;	genCall
   07FF 75 82 01           3193 	mov	dpl,#0x01
   0802 12s02r55           3194 	lcall	_read_byte
   0805 AB 82              3195 	mov	r3,dpl
   0807 15 81              3196 	dec	sp
   0809 D0 02              3197 	pop	ar2
                           3198 ;	genAssign
                           3199 ;	s:/elektronik/eib/c/fb_common/fb_prot.c:325: ga_position=0xFF; 
                           3200 ;	genAssign
   080B 7C FF              3201 	mov	r4,#0xFF
                           3202 ;	s:/elektronik/eib/c/fb_common/fb_prot.c:326: if (ga_count>0)
                           3203 ;	genIfx
   080D EB                 3204 	mov	a,r3
                           3205 ;	genIfxJump
                           3206 ;	Peephole 108.c	removed ljmp by inverse jump logic
   080E 60 60              3207 	jz	00105$
                           3208 ;	Peephole 300	removed redundant label 00118$
                           3209 ;	s:/elektronik/eib/c/fb_common/fb_prot.c:328: for (n=1;n<=ga_count;n++)
                           3210 ;	genAssign
   0810 7D 01              3211 	mov	r5,#0x01
   0812                    3212 00106$:
                           3213 ;	genCmpGt
                           3214 ;	genCmp
   0812 C3                 3215 	clr	c
   0813 EB                 3216 	mov	a,r3
   0814 9D                 3217 	subb	a,r5
                           3218 ;	genIfxJump
                           3219 ;	Peephole 112.b	changed ljmp to sjmp
                           3220 ;	Peephole 160.a	removed sjmp by inverse jump logic
   0815 40 59              3221 	jc	00105$
                           3222 ;	Peephole 300	removed redundant label 00119$
                           3223 ;	s:/elektronik/eib/c/fb_common/fb_prot.c:330: if (gah==read_byte(0x01,ADDRTAB+n*2+1) && gal==read_byte(0x01,ADDRTAB+n*2+2)) ga_position=n;
                           3224 ;	genLeftShift
                           3225 ;	genLeftShiftLiteral
                           3226 ;	genlshOne
   0817 ED                 3227 	mov	a,r5
                           3228 ;	Peephole 254	optimized left shift
   0818 2D                 3229 	add	a,r5
   0819 FE                 3230 	mov	r6,a
                           3231 ;	genPlus
                           3232 ;     genPlusIncr
   081A 74 17              3233 	mov	a,#0x17
                           3234 ;	Peephole 236.a	used r6 instead of ar6
   081C 2E                 3235 	add	a,r6
   081D FF                 3236 	mov	r7,a
                           3237 ;	genIpush
   081E C0 02              3238 	push	ar2
   0820 C0 03              3239 	push	ar3
   0822 C0 04              3240 	push	ar4
   0824 C0 05              3241 	push	ar5
   0826 C0 06              3242 	push	ar6
   0828 C0 07              3243 	push	ar7
                           3244 ;	genCall
   082A 75 82 01           3245 	mov	dpl,#0x01
   082D 12s02r55           3246 	lcall	_read_byte
   0830 AF 82              3247 	mov	r7,dpl
   0832 15 81              3248 	dec	sp
   0834 D0 06              3249 	pop	ar6
   0836 D0 05              3250 	pop	ar5
   0838 D0 04              3251 	pop	ar4
   083A D0 03              3252 	pop	ar3
   083C D0 02              3253 	pop	ar2
                           3254 ;	genCmpEq
                           3255 ;	gencjneshort
   083E EA                 3256 	mov	a,r2
                           3257 ;	Peephole 112.b	changed ljmp to sjmp
                           3258 ;	Peephole 198.b	optimized misc jump sequence
   083F B5 07 2B           3259 	cjne	a,ar7,00108$
                           3260 ;	Peephole 200.b	removed redundant sjmp
                           3261 ;	Peephole 300	removed redundant label 00120$
                           3262 ;	Peephole 300	removed redundant label 00121$
                           3263 ;	genPlus
                           3264 ;     genPlusIncr
   0842 74 18              3265 	mov	a,#0x18
                           3266 ;	Peephole 236.a	used r6 instead of ar6
   0844 2E                 3267 	add	a,r6
   0845 FE                 3268 	mov	r6,a
                           3269 ;	genIpush
   0846 C0 02              3270 	push	ar2
   0848 C0 03              3271 	push	ar3
   084A C0 04              3272 	push	ar4
   084C C0 05              3273 	push	ar5
   084E C0 06              3274 	push	ar6
                           3275 ;	genCall
   0850 75 82 01           3276 	mov	dpl,#0x01
   0853 12s02r55           3277 	lcall	_read_byte
   0856 AE 82              3278 	mov	r6,dpl
   0858 15 81              3279 	dec	sp
   085A D0 05              3280 	pop	ar5
   085C D0 04              3281 	pop	ar4
   085E D0 03              3282 	pop	ar3
   0860 D0 02              3283 	pop	ar2
                           3284 ;	genCmpEq
   0862 A8*00              3285 	mov	r0,_bp
   0864 18                 3286 	dec	r0
   0865 18                 3287 	dec	r0
   0866 18                 3288 	dec	r0
                           3289 ;	gencjneshort
   0867 E6                 3290 	mov	a,@r0
                           3291 ;	Peephole 112.b	changed ljmp to sjmp
                           3292 ;	Peephole 198.b	optimized misc jump sequence
   0868 B5 06 02           3293 	cjne	a,ar6,00108$
                           3294 ;	Peephole 200.b	removed redundant sjmp
                           3295 ;	Peephole 300	removed redundant label 00122$
                           3296 ;	Peephole 300	removed redundant label 00123$
                           3297 ;	genAssign
   086B 8D 04              3298 	mov	ar4,r5
   086D                    3299 00108$:
                           3300 ;	s:/elektronik/eib/c/fb_common/fb_prot.c:328: for (n=1;n<=ga_count;n++)
                           3301 ;	genPlus
                           3302 ;     genPlusIncr
   086D 0D                 3303 	inc	r5
                           3304 ;	Peephole 112.b	changed ljmp to sjmp
   086E 80 A2              3305 	sjmp	00106$
   0870                    3306 00105$:
                           3307 ;	s:/elektronik/eib/c/fb_common/fb_prot.c:333: return (ga_position);
                           3308 ;	genRet
   0870 8C 82              3309 	mov	dpl,r4
                           3310 ;	Peephole 300	removed redundant label 00110$
   0872 D0*00              3311 	pop	_bp
   0874 22                 3312 	ret
                           3313 ;------------------------------------------------------------
                           3314 ;Allocation info for local variables in function 'write_delay_record'
                           3315 ;------------------------------------------------------------
                           3316 ;delay_status              Allocated to stack - offset -3
                           3317 ;delay_target              Allocated to stack - offset -7
                           3318 ;objno                     Allocated to registers r2 
                           3319 ;------------------------------------------------------------
                           3320 ;	s:/elektronik/eib/c/fb_common/fb_prot.c:337: void write_delay_record(unsigned char objno, unsigned char delay_status, long delay_target)		// Schreibt die Schalt-Verzögerungswerte ins Flash
                           3321 ;	-----------------------------------------
                           3322 ;	 function write_delay_record
                           3323 ;	-----------------------------------------
   0875                    3324 _write_delay_record:
   0875 C0*00              3325 	push	_bp
   0877 85 81*00           3326 	mov	_bp,sp
                           3327 ;	genReceive
   087A AA 82              3328 	mov	r2,dpl
                           3329 ;	s:/elektronik/eib/c/fb_common/fb_prot.c:339: start_writecycle();
                           3330 ;	genCall
   087C C0 02              3331 	push	ar2
   087E 12s01rF6           3332 	lcall	_start_writecycle
   0881 D0 02              3333 	pop	ar2
                           3334 ;	s:/elektronik/eib/c/fb_common/fb_prot.c:340: write_byte(0x00,objno*5,objno+delay_status);
                           3335 ;	genPlus
   0883 A8*00              3336 	mov	r0,_bp
   0885 18                 3337 	dec	r0
   0886 18                 3338 	dec	r0
   0887 18                 3339 	dec	r0
   0888 E6                 3340 	mov	a,@r0
                           3341 ;	Peephole 236.a	used r2 instead of ar2
   0889 2A                 3342 	add	a,r2
   088A FB                 3343 	mov	r3,a
                           3344 ;	genMult
                           3345 ;	genMultOneByte
   088B EA                 3346 	mov	a,r2
   088C 75 F0 05           3347 	mov	b,#0x05
   088F A4                 3348 	mul	ab
   0890 FA                 3349 	mov	r2,a
                           3350 ;	genIpush
   0891 C0 02              3351 	push	ar2
   0893 C0 03              3352 	push	ar3
                           3353 ;	genIpush
   0895 C0 02              3354 	push	ar2
                           3355 ;	genCall
   0897 75 82 00           3356 	mov	dpl,#0x00
   089A 12s01rFE           3357 	lcall	_write_byte
   089D 15 81              3358 	dec	sp
   089F 15 81              3359 	dec	sp
   08A1 D0 02              3360 	pop	ar2
                           3361 ;	s:/elektronik/eib/c/fb_common/fb_prot.c:341: write_byte(0x00,1+objno*5,delay_target>>24);
                           3362 ;	genGetByte
   08A3 E5*00              3363 	mov	a,_bp
   08A5 24 F9              3364 	add	a,#0xfffffff9
                           3365 ;	Peephole 185	changed order of increment (acc incremented also!)
   08A7 04                 3366 	inc	a
                           3367 ;	Peephole 185	changed order of increment (acc incremented also!)
   08A8 04                 3368 	inc	a
                           3369 ;	Peephole 185	changed order of increment (acc incremented also!)
   08A9 04                 3370 	inc	a
   08AA F8                 3371 	mov	r0,a
   08AB 86 03              3372 	mov	ar3,@r0
                           3373 ;	genPlus
                           3374 ;     genPlusIncr
   08AD 74 01              3375 	mov	a,#0x01
                           3376 ;	Peephole 236.a	used r2 instead of ar2
   08AF 2A                 3377 	add	a,r2
   08B0 FC                 3378 	mov	r4,a
                           3379 ;	genIpush
   08B1 C0 02              3380 	push	ar2
   08B3 C0 03              3381 	push	ar3
                           3382 ;	genIpush
   08B5 C0 04              3383 	push	ar4
                           3384 ;	genCall
   08B7 75 82 00           3385 	mov	dpl,#0x00
   08BA 12s01rFE           3386 	lcall	_write_byte
   08BD 15 81              3387 	dec	sp
   08BF 15 81              3388 	dec	sp
   08C1 D0 02              3389 	pop	ar2
                           3390 ;	s:/elektronik/eib/c/fb_common/fb_prot.c:342: write_byte(0x00,2+objno*5,delay_target>>16);
                           3391 ;	genGetByte
   08C3 E5*00              3392 	mov	a,_bp
   08C5 24 F9              3393 	add	a,#0xfffffff9
                           3394 ;	Peephole 185	changed order of increment (acc incremented also!)
   08C7 04                 3395 	inc	a
                           3396 ;	Peephole 185	changed order of increment (acc incremented also!)
   08C8 04                 3397 	inc	a
   08C9 F8                 3398 	mov	r0,a
   08CA 86 03              3399 	mov	ar3,@r0
                           3400 ;	genPlus
                           3401 ;     genPlusIncr
   08CC 74 02              3402 	mov	a,#0x02
                           3403 ;	Peephole 236.a	used r2 instead of ar2
   08CE 2A                 3404 	add	a,r2
   08CF FC                 3405 	mov	r4,a
                           3406 ;	genIpush
   08D0 C0 02              3407 	push	ar2
   08D2 C0 03              3408 	push	ar3
                           3409 ;	genIpush
   08D4 C0 04              3410 	push	ar4
                           3411 ;	genCall
   08D6 75 82 00           3412 	mov	dpl,#0x00
   08D9 12s01rFE           3413 	lcall	_write_byte
   08DC 15 81              3414 	dec	sp
   08DE 15 81              3415 	dec	sp
   08E0 D0 02              3416 	pop	ar2
                           3417 ;	s:/elektronik/eib/c/fb_common/fb_prot.c:343: write_byte(0x00,3+objno*5,delay_target>>8);
                           3418 ;	genGetByte
   08E2 E5*00              3419 	mov	a,_bp
   08E4 24 F9              3420 	add	a,#0xfffffff9
                           3421 ;	Peephole 185	changed order of increment (acc incremented also!)
   08E6 04                 3422 	inc	a
   08E7 F8                 3423 	mov	r0,a
   08E8 86 03              3424 	mov	ar3,@r0
                           3425 ;	genPlus
                           3426 ;     genPlusIncr
   08EA 74 03              3427 	mov	a,#0x03
                           3428 ;	Peephole 236.a	used r2 instead of ar2
   08EC 2A                 3429 	add	a,r2
   08ED FC                 3430 	mov	r4,a
                           3431 ;	genIpush
   08EE C0 02              3432 	push	ar2
   08F0 C0 03              3433 	push	ar3
                           3434 ;	genIpush
   08F2 C0 04              3435 	push	ar4
                           3436 ;	genCall
   08F4 75 82 00           3437 	mov	dpl,#0x00
   08F7 12s01rFE           3438 	lcall	_write_byte
   08FA 15 81              3439 	dec	sp
   08FC 15 81              3440 	dec	sp
   08FE D0 02              3441 	pop	ar2
                           3442 ;	s:/elektronik/eib/c/fb_common/fb_prot.c:344: write_byte(0x00,4+objno*5,delay_target);
                           3443 ;	genCast
   0900 E5*00              3444 	mov	a,_bp
   0902 24 F9              3445 	add	a,#0xfffffff9
   0904 F8                 3446 	mov	r0,a
   0905 86 03              3447 	mov	ar3,@r0
                           3448 ;	genPlus
                           3449 ;     genPlusIncr
   0907 EA                 3450 	mov	a,r2
   0908 24 04              3451 	add	a,#0x04
   090A FA                 3452 	mov	r2,a
                           3453 ;	genIpush
   090B C0 03              3454 	push	ar3
                           3455 ;	genIpush
   090D C0 02              3456 	push	ar2
                           3457 ;	genCall
   090F 75 82 00           3458 	mov	dpl,#0x00
   0912 12s01rFE           3459 	lcall	_write_byte
   0915 15 81              3460 	dec	sp
   0917 15 81              3461 	dec	sp
                           3462 ;	s:/elektronik/eib/c/fb_common/fb_prot.c:345: stop_writecycle();
                           3463 ;	genCall
   0919 12s01rFA           3464 	lcall	_stop_writecycle
                           3465 ;	Peephole 300	removed redundant label 00101$
   091C D0*00              3466 	pop	_bp
   091E 22                 3467 	ret
                           3468 ;------------------------------------------------------------
                           3469 ;Allocation info for local variables in function 'restart_prot'
                           3470 ;------------------------------------------------------------
                           3471 ;------------------------------------------------------------
                           3472 ;	s:/elektronik/eib/c/fb_common/fb_prot.c:349: void restart_prot(void)		// Protokoll-relevante Parameter zurücksetzen
                           3473 ;	-----------------------------------------
                           3474 ;	 function restart_prot
                           3475 ;	-----------------------------------------
   091F                    3476 _restart_prot:
                           3477 ;	s:/elektronik/eib/c/fb_common/fb_prot.c:351: pah=read_byte(0x01,ADDRTAB+1);	// phys. Adresse einlesen
                           3478 ;	genIpush
   091F 74 17              3479 	mov	a,#0x17
   0921 C0 E0              3480 	push	acc
                           3481 ;	genCall
   0923 75 82 01           3482 	mov	dpl,#0x01
   0926 12s02r55           3483 	lcall	_read_byte
   0929 85 82*1A           3484 	mov	_pah,dpl
   092C 15 81              3485 	dec	sp
                           3486 ;	s:/elektronik/eib/c/fb_common/fb_prot.c:352: pal=read_byte(0x01,ADDRTAB+2);
                           3487 ;	genIpush
   092E 74 18              3488 	mov	a,#0x18
   0930 C0 E0              3489 	push	acc
                           3490 ;	genCall
   0932 75 82 01           3491 	mov	dpl,#0x01
   0935 12s02r55           3492 	lcall	_read_byte
   0938 85 82*19           3493 	mov	_pal,dpl
   093B 15 81              3494 	dec	sp
                           3495 ;	s:/elektronik/eib/c/fb_common/fb_prot.c:354: progmode=0;			// kein Programmiermodus
                           3496 ;	genAssign
   093D C2*01              3497 	clr	_progmode
                           3498 ;	s:/elektronik/eib/c/fb_common/fb_prot.c:355: pcount=1;			// Paketzähler initialisieren
                           3499 ;	genAssign
   093F 75*1E 01           3500 	mov	_pcount,#0x01
                           3501 ;	s:/elektronik/eib/c/fb_common/fb_prot.c:356: connected=0;			// keine Verbindung
                           3502 ;	genAssign
   0942 C2*02              3503 	clr	_connected
                           3504 ;	s:/elektronik/eib/c/fb_common/fb_prot.c:358: telpos=0;			// empfangene Bytes an dieser Position im Array telegramm[] ablegen
                           3505 ;	genAssign
   0944 75*17 00           3506 	mov	_telpos,#0x00
                           3507 ;	Peephole 300	removed redundant label 00101$
   0947 22                 3508 	ret
                           3509 ;------------------------------------------------------------
                           3510 ;Allocation info for local variables in function 'pin_changed'
                           3511 ;------------------------------------------------------------
                           3512 ;pinno                     Allocated to registers r2 
                           3513 ;------------------------------------------------------------
                           3514 ;	S:/ELEKTR~1/EIB/C/fn_in8/fb_app_in8.c:13: void pin_changed(unsigned char pinno)
                           3515 ;	-----------------------------------------
                           3516 ;	 function pin_changed
                           3517 ;	-----------------------------------------
   0948                    3518 _pin_changed:
                           3519 ;	genReceive
   0948 AA 82              3520 	mov	r2,dpl
                           3521 ;	S:/ELEKTR~1/EIB/C/fn_in8/fb_app_in8.c:15: EX1=0;
                           3522 ;	genAssign
   094A C2 AA              3523 	clr	_IEN0_2
                           3524 ;	S:/ELEKTR~1/EIB/C/fn_in8/fb_app_in8.c:17: if (debounce(pinno))			// Entprellzeit abwarten und prüfen
                           3525 ;	genCall
   094C 8A 82              3526 	mov	dpl,r2
   094E C0 02              3527 	push	ar2
   0950 12s0Br1D           3528 	lcall	_debounce
   0953 E5 82              3529 	mov	a,dpl
   0955 D0 02              3530 	pop	ar2
                           3531 ;	genIfx
                           3532 ;	genIfxJump
   0957 70 03              3533 	jnz	00126$
   0959 02s0Ar0D           3534 	ljmp	00117$
   095C                    3535 00126$:
                           3536 ;	S:/ELEKTR~1/EIB/C/fn_in8/fb_app_in8.c:19: switch (pin_function(pinno))	// Funktion des Eingangs
                           3537 ;	genCall
   095C 8A 82              3538 	mov	dpl,r2
   095E C0 02              3539 	push	ar2
   0960 12s0Br19           3540 	lcall	_pin_function
   0963 AB 82              3541 	mov	r3,dpl
   0965 D0 02              3542 	pop	ar2
                           3543 ;	genCmpEq
                           3544 ;	gencjneshort
   0967 BB 00 02           3545 	cjne	r3,#0x00,00127$
                           3546 ;	Peephole 112.b	changed ljmp to sjmp
   096A 80 08              3547 	sjmp	00101$
   096C                    3548 00127$:
                           3549 ;	genCmpEq
                           3550 ;	gencjneshort
   096C BB 01 02           3551 	cjne	r3,#0x01,00128$
                           3552 ;	Peephole 112.b	changed ljmp to sjmp
   096F 80 71              3553 	sjmp	00106$
   0971                    3554 00128$:
   0971 02s0Ar0D           3555 	ljmp	00117$
                           3556 ;	S:/ELEKTR~1/EIB/C/fn_in8/fb_app_in8.c:21: case 0x00:				// Funktion Schalten
   0974                    3557 00101$:
                           3558 ;	S:/ELEKTR~1/EIB/C/fn_in8/fb_app_in8.c:22: if(((portbuffer>>pinno)&0x01)==0 && ((p0h>>pinno)&0x01)==1)	
                           3559 ;	genRightShift
   0974 8A F0              3560 	mov	b,r2
   0976 05 F0              3561 	inc	b
   0978 E5*1F              3562 	mov	a,_portbuffer
   097A 80 02              3563 	sjmp	00130$
   097C                    3564 00129$:
   097C C3                 3565 	clr	c
   097D 13                 3566 	rrc	a
   097E                    3567 00130$:
   097E D5 F0 FB           3568 	djnz	b,00129$
                           3569 ;	genAnd
                           3570 ;	genIfxJump
                           3571 ;	Peephole 108.e	removed ljmp by inverse jump logic
   0981 20 E0 35           3572 	jb	acc.0,00103$
                           3573 ;	Peephole 300	removed redundant label 00131$
                           3574 ;	genRightShift
   0984 8A F0              3575 	mov	b,r2
   0986 05 F0              3576 	inc	b
   0988 E5*20              3577 	mov	a,_p0h
   098A 80 02              3578 	sjmp	00133$
   098C                    3579 00132$:
   098C C3                 3580 	clr	c
   098D 13                 3581 	rrc	a
   098E                    3582 00133$:
   098E D5 F0 FB           3583 	djnz	b,00132$
                           3584 ;	genAnd
   0991 54 01              3585 	anl	a,#0x01
   0993 FB                 3586 	mov	r3,a
                           3587 ;	genCmpEq
                           3588 ;	gencjneshort
                           3589 ;	Peephole 112.b	changed ljmp to sjmp
                           3590 ;	Peephole 198.b	optimized misc jump sequence
   0994 BB 01 22           3591 	cjne	r3,#0x01,00103$
                           3592 ;	Peephole 200.b	removed redundant sjmp
                           3593 ;	Peephole 300	removed redundant label 00134$
                           3594 ;	Peephole 300	removed redundant label 00135$
                           3595 ;	S:/ELEKTR~1/EIB/C/fn_in8/fb_app_in8.c:24: schalten(1,pinno);			// steigende Flanke Eingang x.1
                           3596 ;	genIpush
   0997 C0 02              3597 	push	ar2
   0999 C0 02              3598 	push	ar2
                           3599 ;	genCall
   099B 75 82 01           3600 	mov	dpl,#0x01
   099E 12s0Ar19           3601 	lcall	_schalten
   09A1 15 81              3602 	dec	sp
   09A3 D0 02              3603 	pop	ar2
                           3604 ;	S:/ELEKTR~1/EIB/C/fn_in8/fb_app_in8.c:25: schalten(1,pinno+8);			// steigende Flanke Eingang x.2
                           3605 ;	genPlus
                           3606 ;     genPlusIncr
   09A5 74 08              3607 	mov	a,#0x08
                           3608 ;	Peephole 236.a	used r2 instead of ar2
   09A7 2A                 3609 	add	a,r2
   09A8 FB                 3610 	mov	r3,a
                           3611 ;	genIpush
   09A9 C0 02              3612 	push	ar2
   09AB C0 03              3613 	push	ar3
                           3614 ;	genCall
   09AD 75 82 01           3615 	mov	dpl,#0x01
   09B0 12s0Ar19           3616 	lcall	_schalten
   09B3 15 81              3617 	dec	sp
   09B5 D0 02              3618 	pop	ar2
                           3619 ;	Peephole 112.b	changed ljmp to sjmp
   09B7 80 20              3620 	sjmp	00104$
   09B9                    3621 00103$:
                           3622 ;	S:/ELEKTR~1/EIB/C/fn_in8/fb_app_in8.c:29: schalten(0,pinno);			// fallende Flanke Eingang x.1
                           3623 ;	genIpush
   09B9 C0 02              3624 	push	ar2
   09BB C0 02              3625 	push	ar2
                           3626 ;	genCall
   09BD 75 82 00           3627 	mov	dpl,#0x00
   09C0 12s0Ar19           3628 	lcall	_schalten
   09C3 15 81              3629 	dec	sp
   09C5 D0 02              3630 	pop	ar2
                           3631 ;	S:/ELEKTR~1/EIB/C/fn_in8/fb_app_in8.c:30: schalten(0,pinno+8);			// fallende Flanke Eingang x.2
                           3632 ;	genPlus
                           3633 ;     genPlusIncr
   09C7 74 08              3634 	mov	a,#0x08
                           3635 ;	Peephole 236.a	used r2 instead of ar2
   09C9 2A                 3636 	add	a,r2
   09CA FB                 3637 	mov	r3,a
                           3638 ;	genIpush
   09CB C0 02              3639 	push	ar2
   09CD C0 03              3640 	push	ar3
                           3641 ;	genCall
   09CF 75 82 00           3642 	mov	dpl,#0x00
   09D2 12s0Ar19           3643 	lcall	_schalten
   09D5 15 81              3644 	dec	sp
   09D7 D0 02              3645 	pop	ar2
   09D9                    3646 00104$:
                           3647 ;	S:/ELEKTR~1/EIB/C/fn_in8/fb_app_in8.c:32: send_cyclic(pinno);
                           3648 ;	genCall
   09D9 8A 82              3649 	mov	dpl,r2
   09DB C0 02              3650 	push	ar2
   09DD 12s0Ar10           3651 	lcall	_send_cyclic
   09E0 D0 02              3652 	pop	ar2
                           3653 ;	S:/ELEKTR~1/EIB/C/fn_in8/fb_app_in8.c:33: case 0x01:				// Funktion Dimmen
   09E2                    3654 00106$:
                           3655 ;	S:/ELEKTR~1/EIB/C/fn_in8/fb_app_in8.c:34: switch (operation(pinno))			// Bedienung
                           3656 ;	genCall
   09E2 8A 82              3657 	mov	dpl,r2
   09E4 C0 02              3658 	push	ar2
   09E6 12s0Ar11           3659 	lcall	_operation
   09E9 AB 82              3660 	mov	r3,dpl
   09EB D0 02              3661 	pop	ar2
                           3662 ;	genCmpGt
                           3663 ;	genCmp
                           3664 ;	genIfxJump
                           3665 ;	Peephole 132.b	optimized genCmpGt by inverse logic (acc differs)
   09ED EB                 3666 	mov	a,r3
   09EE 24 FB              3667 	add	a,#0xff - 0x04
                           3668 ;	Peephole 112.b	changed ljmp to sjmp
                           3669 ;	Peephole 160.a	removed sjmp by inverse jump logic
   09F0 40 1B              3670 	jc	00117$
                           3671 ;	Peephole 300	removed redundant label 00136$
                           3672 ;	genJumpTab
   09F2 EB                 3673 	mov	a,r3
                           3674 ;	Peephole 254	optimized left shift
   09F3 2B                 3675 	add	a,r3
   09F4 2B                 3676 	add	a,r3
   09F5 90s09rF9           3677 	mov	dptr,#00137$
   09F8 73                 3678 	jmp	@a+dptr
   09F9                    3679 00137$:
   09F9 02s0Ar08           3680 	ljmp	00107$
   09FC 02s0Ar0D           3681 	ljmp	00110$
   09FF 02s0Ar0D           3682 	ljmp	00111$
   0A02 02s0Ar0D           3683 	ljmp	00112$
   0A05 02s0Ar0D           3684 	ljmp	00113$
                           3685 ;	S:/ELEKTR~1/EIB/C/fn_in8/fb_app_in8.c:36: case 0x00:					// Einflächenbedienung heller/dunkler (UM)
   0A08                    3686 00107$:
                           3687 ;	S:/ELEKTR~1/EIB/C/fn_in8/fb_app_in8.c:37: if (switch_dim(pinno)==0)			// prüfen, ob Taster länger gedrückt als Schalten/Dimmen-Zeit
                           3688 ;	genCall
   0A08 8A 82              3689 	mov	dpl,r2
   0A0A 12s0Ar15           3690 	lcall	_switch_dim
                           3691 ;	S:/ELEKTR~1/EIB/C/fn_in8/fb_app_in8.c:43: case 0x01:					// Zweiflächenbedienung heller (EIN)
   0A0D                    3692 00110$:
                           3693 ;	S:/ELEKTR~1/EIB/C/fn_in8/fb_app_in8.c:44: case 0x02:					// Zweiflächenbedienung dunkler (AUS)
   0A0D                    3694 00111$:
                           3695 ;	S:/ELEKTR~1/EIB/C/fn_in8/fb_app_in8.c:45: case 0x03:					// Zweiflächenbedienung heller (UM)
   0A0D                    3696 00112$:
                           3697 ;	S:/ELEKTR~1/EIB/C/fn_in8/fb_app_in8.c:46: case 0x04:					// Zweiflächenbedienung dunkler (UM)
   0A0D                    3698 00113$:
                           3699 ;	S:/ELEKTR~1/EIB/C/fn_in8/fb_app_in8.c:48: }
   0A0D                    3700 00117$:
                           3701 ;	S:/ELEKTR~1/EIB/C/fn_in8/fb_app_in8.c:50: EX1=1;
                           3702 ;	genAssign
   0A0D D2 AA              3703 	setb	_IEN0_2
                           3704 ;	Peephole 300	removed redundant label 00118$
   0A0F 22                 3705 	ret
                           3706 ;------------------------------------------------------------
                           3707 ;Allocation info for local variables in function 'send_cyclic'
                           3708 ;------------------------------------------------------------
                           3709 ;pinno                     Allocated to registers 
                           3710 ;------------------------------------------------------------
                           3711 ;	S:/ELEKTR~1/EIB/C/fn_in8/fb_app_in8.c:54: void send_cyclic(unsigned char pinno)
                           3712 ;	-----------------------------------------
                           3713 ;	 function send_cyclic
                           3714 ;	-----------------------------------------
   0A10                    3715 _send_cyclic:
                           3716 ;	S:/ELEKTR~1/EIB/C/fn_in8/fb_app_in8.c:56: pinno;
                           3717 ;	Peephole 300	removed redundant label 00101$
   0A10 22                 3718 	ret
                           3719 ;------------------------------------------------------------
                           3720 ;Allocation info for local variables in function 'operation'
                           3721 ;------------------------------------------------------------
                           3722 ;pinno                     Allocated to registers 
                           3723 ;------------------------------------------------------------
                           3724 ;	S:/ELEKTR~1/EIB/C/fn_in8/fb_app_in8.c:60: unsigned char operation(unsigned char pinno)
                           3725 ;	-----------------------------------------
                           3726 ;	 function operation
                           3727 ;	-----------------------------------------
   0A11                    3728 _operation:
                           3729 ;	S:/ELEKTR~1/EIB/C/fn_in8/fb_app_in8.c:63: return(1);
                           3730 ;	genRet
   0A11 75 82 01           3731 	mov	dpl,#0x01
                           3732 ;	Peephole 300	removed redundant label 00101$
   0A14 22                 3733 	ret
                           3734 ;------------------------------------------------------------
                           3735 ;Allocation info for local variables in function 'switch_dim'
                           3736 ;------------------------------------------------------------
                           3737 ;pinno                     Allocated to registers 
                           3738 ;------------------------------------------------------------
                           3739 ;	S:/ELEKTR~1/EIB/C/fn_in8/fb_app_in8.c:67: unsigned char switch_dim(unsigned char pinno)
                           3740 ;	-----------------------------------------
                           3741 ;	 function switch_dim
                           3742 ;	-----------------------------------------
   0A15                    3743 _switch_dim:
                           3744 ;	S:/ELEKTR~1/EIB/C/fn_in8/fb_app_in8.c:70: return(1);
                           3745 ;	genRet
   0A15 75 82 01           3746 	mov	dpl,#0x01
                           3747 ;	Peephole 300	removed redundant label 00101$
   0A18 22                 3748 	ret
                           3749 ;------------------------------------------------------------
                           3750 ;Allocation info for local variables in function 'schalten'
                           3751 ;------------------------------------------------------------
                           3752 ;pinno                     Allocated to stack - offset -3
                           3753 ;risefall                  Allocated to registers r2 
                           3754 ;func                      Allocated to registers r3 
                           3755 ;ga                        Allocated to registers r2 r4 
                           3756 ;------------------------------------------------------------
                           3757 ;	S:/ELEKTR~1/EIB/C/fn_in8/fb_app_in8.c:74: void schalten(unsigned char risefall, unsigned char pinno)	// Schaltbefehl senden
                           3758 ;	-----------------------------------------
                           3759 ;	 function schalten
                           3760 ;	-----------------------------------------
   0A19                    3761 _schalten:
   0A19 C0*00              3762 	push	_bp
   0A1B 85 81*00           3763 	mov	_bp,sp
                           3764 ;	genReceive
   0A1E AA 82              3765 	mov	r2,dpl
                           3766 ;	S:/ELEKTR~1/EIB/C/fn_in8/fb_app_in8.c:79: func=read_byte(0x01,0xD7+((pinno&0x07)*5));
                           3767 ;	genAnd
   0A20 A8*00              3768 	mov	r0,_bp
   0A22 18                 3769 	dec	r0
   0A23 18                 3770 	dec	r0
   0A24 18                 3771 	dec	r0
   0A25 74 07              3772 	mov	a,#0x07
   0A27 56                 3773 	anl	a,@r0
                           3774 ;	genMult
                           3775 ;	genMultOneByte
   0A28 75 F0 05           3776 	mov	b,#0x05
   0A2B A4                 3777 	mul	ab
                           3778 ;	genPlus
                           3779 ;     genPlusIncr
   0A2C 24 D7              3780 	add	a,#0xD7
   0A2E FB                 3781 	mov	r3,a
                           3782 ;	genIpush
   0A2F C0 02              3783 	push	ar2
   0A31 C0 03              3784 	push	ar3
                           3785 ;	genCall
   0A33 75 82 01           3786 	mov	dpl,#0x01
   0A36 12s02r55           3787 	lcall	_read_byte
   0A39 AB 82              3788 	mov	r3,dpl
   0A3B 15 81              3789 	dec	sp
   0A3D D0 02              3790 	pop	ar2
                           3791 ;	genAssign
                           3792 ;	S:/ELEKTR~1/EIB/C/fn_in8/fb_app_in8.c:80: if (risefall==1) func=(func>>2)&0x03;		// steigende Flanke
                           3793 ;	genCmpEq
                           3794 ;	gencjneshort
                           3795 ;	Peephole 112.b	changed ljmp to sjmp
                           3796 ;	Peephole 198.b	optimized misc jump sequence
   0A3F BA 01 0C           3797 	cjne	r2,#0x01,00102$
                           3798 ;	Peephole 200.b	removed redundant sjmp
                           3799 ;	Peephole 300	removed redundant label 00130$
                           3800 ;	Peephole 300	removed redundant label 00131$
                           3801 ;	genRightShift
                           3802 ;	genRightShiftLiteral
                           3803 ;	genrshOne
   0A42 EB                 3804 	mov	a,r3
   0A43 03                 3805 	rr	a
   0A44 03                 3806 	rr	a
   0A45 54 3F              3807 	anl	a,#0x3f
   0A47 FA                 3808 	mov	r2,a
                           3809 ;	genAnd
   0A48 74 03              3810 	mov	a,#0x03
   0A4A 5A                 3811 	anl	a,r2
   0A4B FB                 3812 	mov	r3,a
                           3813 ;	Peephole 112.b	changed ljmp to sjmp
   0A4C 80 03              3814 	sjmp	00103$
   0A4E                    3815 00102$:
                           3816 ;	S:/ELEKTR~1/EIB/C/fn_in8/fb_app_in8.c:81: else func=func&0x03;				// fallende Flanke
                           3817 ;	genAnd
   0A4E 53 03 03           3818 	anl	ar3,#0x03
   0A51                    3819 00103$:
                           3820 ;	S:/ELEKTR~1/EIB/C/fn_in8/fb_app_in8.c:82: if (func!=0)
                           3821 ;	genCmpEq
                           3822 ;	gencjneshort
   0A51 BB 00 03           3823 	cjne	r3,#0x00,00132$
   0A54 02s0Br16           3824 	ljmp	00120$
   0A57                    3825 00132$:
                           3826 ;	S:/ELEKTR~1/EIB/C/fn_in8/fb_app_in8.c:84: ga=find_ga(pinno);
                           3827 ;	genCall
   0A57 A8*00              3828 	mov	r0,_bp
   0A59 18                 3829 	dec	r0
   0A5A 18                 3830 	dec	r0
   0A5B 18                 3831 	dec	r0
   0A5C 86 82              3832 	mov	dpl,@r0
   0A5E C0 03              3833 	push	ar3
   0A60 12s06rF8           3834 	lcall	_find_ga
   0A63 AA 82              3835 	mov	r2,dpl
   0A65 AC 83              3836 	mov	r4,dph
   0A67 D0 03              3837 	pop	ar3
                           3838 ;	genAssign
                           3839 ;	S:/ELEKTR~1/EIB/C/fn_in8/fb_app_in8.c:85: if (ga!=0)
                           3840 ;	genCmpEq
                           3841 ;	gencjneshort
   0A69 BA 00 06           3842 	cjne	r2,#0x00,00133$
   0A6C BC 00 03           3843 	cjne	r4,#0x00,00133$
   0A6F 02s0Br16           3844 	ljmp	00120$
   0A72                    3845 00133$:
                           3846 ;	S:/ELEKTR~1/EIB/C/fn_in8/fb_app_in8.c:87: telegramm[0]=0xBC;
                           3847 ;	genPointerSet
                           3848 ;	genNearPointerSet
                           3849 ;	genDataPointerSet
   0A72 75*00 BC           3850 	mov	_telegramm,#0xBC
                           3851 ;	S:/ELEKTR~1/EIB/C/fn_in8/fb_app_in8.c:88: telegramm[1]=pah;
                           3852 ;	genPointerSet
                           3853 ;	genNearPointerSet
                           3854 ;	genDataPointerSet
   0A75 85*1A*01           3855 	mov	(_telegramm + 0x0001),_pah
                           3856 ;	S:/ELEKTR~1/EIB/C/fn_in8/fb_app_in8.c:89: telegramm[2]=pal;
                           3857 ;	genPointerSet
                           3858 ;	genNearPointerSet
                           3859 ;	genDataPointerSet
   0A78 85*19*02           3860 	mov	(_telegramm + 0x0002),_pal
                           3861 ;	S:/ELEKTR~1/EIB/C/fn_in8/fb_app_in8.c:90: telegramm[3]=ga>>8;
                           3862 ;	genGetByte
   0A7B 8C 05              3863 	mov	ar5,r4
                           3864 ;	genPointerSet
                           3865 ;	genNearPointerSet
                           3866 ;	genDataPointerSet
   0A7D 8D*03              3867 	mov	(_telegramm + 0x0003),r5
                           3868 ;	S:/ELEKTR~1/EIB/C/fn_in8/fb_app_in8.c:91: telegramm[4]=ga;
                           3869 ;	genCast
                           3870 ;	genPointerSet
                           3871 ;	genNearPointerSet
                           3872 ;	genDataPointerSet
   0A7F 8A*04              3873 	mov	(_telegramm + 0x0004),r2
                           3874 ;	S:/ELEKTR~1/EIB/C/fn_in8/fb_app_in8.c:92: telegramm[5]=0xD1;
                           3875 ;	genPointerSet
                           3876 ;	genNearPointerSet
                           3877 ;	genDataPointerSet
   0A81 75*05 D1           3878 	mov	(_telegramm + 0x0005),#0xD1
                           3879 ;	S:/ELEKTR~1/EIB/C/fn_in8/fb_app_in8.c:93: telegramm[6]=0x00;
                           3880 ;	genPointerSet
                           3881 ;	genNearPointerSet
                           3882 ;	genDataPointerSet
   0A84 75*06 00           3883 	mov	(_telegramm + 0x0006),#0x00
                           3884 ;	S:/ELEKTR~1/EIB/C/fn_in8/fb_app_in8.c:94: if (func==0x01) telegramm[7]=0x81;	// EIN
                           3885 ;	genCmpEq
                           3886 ;	gencjneshort
                           3887 ;	Peephole 112.b	changed ljmp to sjmp
                           3888 ;	Peephole 198.b	optimized misc jump sequence
   0A87 BB 01 03           3889 	cjne	r3,#0x01,00105$
                           3890 ;	Peephole 200.b	removed redundant sjmp
                           3891 ;	Peephole 300	removed redundant label 00134$
                           3892 ;	Peephole 300	removed redundant label 00135$
                           3893 ;	genPointerSet
                           3894 ;	genNearPointerSet
                           3895 ;	genDataPointerSet
   0A8A 75*07 81           3896 	mov	(_telegramm + 0x0007),#0x81
   0A8D                    3897 00105$:
                           3898 ;	S:/ELEKTR~1/EIB/C/fn_in8/fb_app_in8.c:95: if (func==0x02) telegramm[7]=0x80;	// AUS
                           3899 ;	genCmpEq
                           3900 ;	gencjneshort
                           3901 ;	Peephole 112.b	changed ljmp to sjmp
                           3902 ;	Peephole 198.b	optimized misc jump sequence
   0A8D BB 02 03           3903 	cjne	r3,#0x02,00107$
                           3904 ;	Peephole 200.b	removed redundant sjmp
                           3905 ;	Peephole 300	removed redundant label 00136$
                           3906 ;	Peephole 300	removed redundant label 00137$
                           3907 ;	genPointerSet
                           3908 ;	genNearPointerSet
                           3909 ;	genDataPointerSet
   0A90 75*07 80           3910 	mov	(_telegramm + 0x0007),#0x80
   0A93                    3911 00107$:
                           3912 ;	S:/ELEKTR~1/EIB/C/fn_in8/fb_app_in8.c:96: if (func==0x03)				// UM
                           3913 ;	genCmpEq
                           3914 ;	gencjneshort
                           3915 ;	Peephole 112.b	changed ljmp to sjmp
                           3916 ;	Peephole 198.b	optimized misc jump sequence
   0A93 BB 03 31           3917 	cjne	r3,#0x03,00112$
                           3918 ;	Peephole 200.b	removed redundant sjmp
                           3919 ;	Peephole 300	removed redundant label 00138$
                           3920 ;	Peephole 300	removed redundant label 00139$
                           3921 ;	S:/ELEKTR~1/EIB/C/fn_in8/fb_app_in8.c:98: if (((objstate>>pinno)&0x01)==0x01) telegramm[7]=0x80;	// AUS
                           3922 ;	genRightShift
                           3923 ;	genSignedRightShift
   0A96 A8*00              3924 	mov	r0,_bp
   0A98 18                 3925 	dec	r0
   0A99 18                 3926 	dec	r0
   0A9A 18                 3927 	dec	r0
   0A9B 86 F0              3928 	mov	b,@r0
   0A9D 05 F0              3929 	inc	b
   0A9F AA*21              3930 	mov	r2,_objstate
                           3931 ;	peephole 177.h	optimized mov sequence
   0AA1 E5*22              3932 	mov	a,(_objstate + 1)
   0AA3 FB                 3933 	mov	r3,a
   0AA4 33                 3934 	rlc	a
   0AA5 92 D2              3935 	mov	ov,c
   0AA7 80 08              3936 	sjmp	00141$
   0AA9                    3937 00140$:
   0AA9 A2 D2              3938 	mov	c,ov
   0AAB EB                 3939 	mov	a,r3
   0AAC 13                 3940 	rrc	a
   0AAD FB                 3941 	mov	r3,a
   0AAE EA                 3942 	mov	a,r2
   0AAF 13                 3943 	rrc	a
   0AB0 FA                 3944 	mov	r2,a
   0AB1                    3945 00141$:
   0AB1 D5 F0 F5           3946 	djnz	b,00140$
                           3947 ;	genAnd
   0AB4 53 02 01           3948 	anl	ar2,#0x01
   0AB7 7B 00              3949 	mov	r3,#0x00
                           3950 ;	genCmpEq
                           3951 ;	gencjneshort
                           3952 ;	Peephole 112.b	changed ljmp to sjmp
                           3953 ;	Peephole 198.a	optimized misc jump sequence
   0AB9 BA 01 08           3954 	cjne	r2,#0x01,00109$
   0ABC BB 00 05           3955 	cjne	r3,#0x00,00109$
                           3956 ;	Peephole 200.b	removed redundant sjmp
                           3957 ;	Peephole 300	removed redundant label 00142$
                           3958 ;	Peephole 300	removed redundant label 00143$
                           3959 ;	genPointerSet
                           3960 ;	genNearPointerSet
                           3961 ;	genDataPointerSet
   0ABF 75*07 80           3962 	mov	(_telegramm + 0x0007),#0x80
                           3963 ;	Peephole 112.b	changed ljmp to sjmp
   0AC2 80 03              3964 	sjmp	00112$
   0AC4                    3965 00109$:
                           3966 ;	S:/ELEKTR~1/EIB/C/fn_in8/fb_app_in8.c:99: else telegramm[7]=0x81;					// EIN
                           3967 ;	genPointerSet
                           3968 ;	genNearPointerSet
                           3969 ;	genDataPointerSet
   0AC4 75*07 81           3970 	mov	(_telegramm + 0x0007),#0x81
   0AC7                    3971 00112$:
                           3972 ;	S:/ELEKTR~1/EIB/C/fn_in8/fb_app_in8.c:101: if (telegramm[7]==0x80) objstate=objstate&(0xFFFF-(0x0001<<pinno));
                           3973 ;	genAssign
                           3974 ;	genCmpEq
                           3975 ;	gencjneshort
   0AC7 E5*07              3976 	mov	a,0x0007 + _telegramm
                           3977 ;	Peephole 112.b	changed ljmp to sjmp
                           3978 ;	Peephole 198.b	optimized misc jump sequence
   0AC9 B4 80 29           3979 	cjne	a,#0x80,00114$
                           3980 ;	Peephole 200.b	removed redundant sjmp
                           3981 ;	Peephole 300	removed redundant label 00144$
                           3982 ;	Peephole 300	removed redundant label 00145$
                           3983 ;	genLeftShift
   0ACC A8*00              3984 	mov	r0,_bp
   0ACE 18                 3985 	dec	r0
   0ACF 18                 3986 	dec	r0
   0AD0 18                 3987 	dec	r0
   0AD1 86 F0              3988 	mov	b,@r0
   0AD3 05 F0              3989 	inc	b
   0AD5 7A 01              3990 	mov	r2,#0x01
   0AD7 7B 00              3991 	mov	r3,#0x00
   0AD9 80 06              3992 	sjmp	00147$
   0ADB                    3993 00146$:
   0ADB EA                 3994 	mov	a,r2
                           3995 ;	Peephole 254	optimized left shift
   0ADC 2A                 3996 	add	a,r2
   0ADD FA                 3997 	mov	r2,a
   0ADE EB                 3998 	mov	a,r3
   0ADF 33                 3999 	rlc	a
   0AE0 FB                 4000 	mov	r3,a
   0AE1                    4001 00147$:
   0AE1 D5 F0 F7           4002 	djnz	b,00146$
                           4003 ;	genMinus
   0AE4 74 FF              4004 	mov	a,#0xFF
   0AE6 C3                 4005 	clr	c
                           4006 ;	Peephole 236.l	used r2 instead of ar2
   0AE7 9A                 4007 	subb	a,r2
   0AE8 FA                 4008 	mov	r2,a
   0AE9 74 FF              4009 	mov	a,#0xFF
                           4010 ;	Peephole 236.l	used r3 instead of ar3
   0AEB 9B                 4011 	subb	a,r3
   0AEC FB                 4012 	mov	r3,a
                           4013 ;	genAnd
   0AED EA                 4014 	mov	a,r2
   0AEE 52*21              4015 	anl	_objstate,a
   0AF0 EB                 4016 	mov	a,r3
   0AF1 52*22              4017 	anl	(_objstate + 1),a
                           4018 ;	Peephole 112.b	changed ljmp to sjmp
   0AF3 80 1E              4019 	sjmp	00115$
   0AF5                    4020 00114$:
                           4021 ;	S:/ELEKTR~1/EIB/C/fn_in8/fb_app_in8.c:102: else objstate=objstate|(0x0001<<pinno);
                           4022 ;	genLeftShift
   0AF5 A8*00              4023 	mov	r0,_bp
   0AF7 18                 4024 	dec	r0
   0AF8 18                 4025 	dec	r0
   0AF9 18                 4026 	dec	r0
   0AFA 86 F0              4027 	mov	b,@r0
   0AFC 05 F0              4028 	inc	b
   0AFE 7A 01              4029 	mov	r2,#0x01
   0B00 7B 00              4030 	mov	r3,#0x00
   0B02 80 06              4031 	sjmp	00149$
   0B04                    4032 00148$:
   0B04 EA                 4033 	mov	a,r2
                           4034 ;	Peephole 254	optimized left shift
   0B05 2A                 4035 	add	a,r2
   0B06 FA                 4036 	mov	r2,a
   0B07 EB                 4037 	mov	a,r3
   0B08 33                 4038 	rlc	a
   0B09 FB                 4039 	mov	r3,a
   0B0A                    4040 00149$:
   0B0A D5 F0 F7           4041 	djnz	b,00148$
                           4042 ;	genOr
   0B0D EA                 4043 	mov	a,r2
   0B0E 42*21              4044 	orl	_objstate,a
   0B10 EB                 4045 	mov	a,r3
   0B11 42*22              4046 	orl	(_objstate + 1),a
   0B13                    4047 00115$:
                           4048 ;	S:/ELEKTR~1/EIB/C/fn_in8/fb_app_in8.c:103: send_telegramm();
                           4049 ;	genCall
   0B13 12s04r63           4050 	lcall	_send_telegramm
   0B16                    4051 00120$:
   0B16 D0*00              4052 	pop	_bp
   0B18 22                 4053 	ret
                           4054 ;------------------------------------------------------------
                           4055 ;Allocation info for local variables in function 'pin_function'
                           4056 ;------------------------------------------------------------
                           4057 ;pinno                     Allocated to registers 
                           4058 ;------------------------------------------------------------
                           4059 ;	S:/ELEKTR~1/EIB/C/fn_in8/fb_app_in8.c:111: unsigned char pin_function(unsigned char pinno)		// Funktion des Eingangs ermitteln
                           4060 ;	-----------------------------------------
                           4061 ;	 function pin_function
                           4062 ;	-----------------------------------------
   0B19                    4063 _pin_function:
                           4064 ;	S:/ELEKTR~1/EIB/C/fn_in8/fb_app_in8.c:114: return (0);
                           4065 ;	genRet
   0B19 75 82 00           4066 	mov	dpl,#0x00
                           4067 ;	Peephole 300	removed redundant label 00101$
   0B1C 22                 4068 	ret
                           4069 ;------------------------------------------------------------
                           4070 ;Allocation info for local variables in function 'debounce'
                           4071 ;------------------------------------------------------------
                           4072 ;pinno                     Allocated to registers 
                           4073 ;debtime                   Allocated to registers r2 
                           4074 ;n                         Allocated to registers r3 
                           4075 ;------------------------------------------------------------
                           4076 ;	S:/ELEKTR~1/EIB/C/fn_in8/fb_app_in8.c:118: unsigned char debounce(unsigned char pinno)	// Entprellzeit abwarten und prüfen !! Prüfung fehlt noch !!
                           4077 ;	-----------------------------------------
                           4078 ;	 function debounce
                           4079 ;	-----------------------------------------
   0B1D                    4080 _debounce:
                           4081 ;	S:/ELEKTR~1/EIB/C/fn_in8/fb_app_in8.c:122: debtime=read_byte(0x01,DEBTIME);			// Entprellzeit in 0,5ms Schritten
                           4082 ;	genIpush
   0B1D 74 D2              4083 	mov	a,#0xD2
   0B1F C0 E0              4084 	push	acc
                           4085 ;	genCall
   0B21 75 82 01           4086 	mov	dpl,#0x01
   0B24 12s02r55           4087 	lcall	_read_byte
   0B27 AA 82              4088 	mov	r2,dpl
   0B29 15 81              4089 	dec	sp
                           4090 ;	genAssign
                           4091 ;	S:/ELEKTR~1/EIB/C/fn_in8/fb_app_in8.c:123: if (debtime>0)
                           4092 ;	genIfx
   0B2B EA                 4093 	mov	a,r2
                           4094 ;	genIfxJump
                           4095 ;	Peephole 108.c	removed ljmp by inverse jump logic
   0B2C 60 18              4096 	jz	00102$
                           4097 ;	Peephole 300	removed redundant label 00113$
                           4098 ;	S:/ELEKTR~1/EIB/C/fn_in8/fb_app_in8.c:125: for(n=0;n<debtime;n++)
                           4099 ;	genAssign
   0B2E 7B 00              4100 	mov	r3,#0x00
   0B30                    4101 00103$:
                           4102 ;	genCmpLt
                           4103 ;	genCmp
   0B30 C3                 4104 	clr	c
   0B31 EB                 4105 	mov	a,r3
   0B32 9A                 4106 	subb	a,r2
                           4107 ;	genIfxJump
                           4108 ;	Peephole 108.a	removed ljmp by inverse jump logic
   0B33 50 11              4109 	jnc	00102$
                           4110 ;	Peephole 300	removed redundant label 00114$
                           4111 ;	S:/ELEKTR~1/EIB/C/fn_in8/fb_app_in8.c:127: delay(500);
                           4112 ;	genCall
                           4113 ;	Peephole 182.b	used 16 bit load of dptr
   0B35 90 01 F4           4114 	mov	dptr,#0x01F4
   0B38 C0 02              4115 	push	ar2
   0B3A C0 03              4116 	push	ar3
   0B3C 12s02r20           4117 	lcall	_delay
   0B3F D0 03              4118 	pop	ar3
   0B41 D0 02              4119 	pop	ar2
                           4120 ;	S:/ELEKTR~1/EIB/C/fn_in8/fb_app_in8.c:125: for(n=0;n<debtime;n++)
                           4121 ;	genPlus
                           4122 ;     genPlusIncr
   0B43 0B                 4123 	inc	r3
                           4124 ;	Peephole 112.b	changed ljmp to sjmp
   0B44 80 EA              4125 	sjmp	00103$
   0B46                    4126 00102$:
                           4127 ;	S:/ELEKTR~1/EIB/C/fn_in8/fb_app_in8.c:131: return(1);
                           4128 ;	genRet
   0B46 75 82 01           4129 	mov	dpl,#0x01
                           4130 ;	Peephole 300	removed redundant label 00107$
   0B49 22                 4131 	ret
                           4132 ;------------------------------------------------------------
                           4133 ;Allocation info for local variables in function 'eis1'
                           4134 ;------------------------------------------------------------
                           4135 ;objno                     Allocated to registers r7 
                           4136 ;port_pattern              Allocated to stack - offset 1
                           4137 ;objflags                  Allocated to stack - offset 2
                           4138 ;gapos                     Allocated to stack - offset 3
                           4139 ;atp                       Allocated to registers r3 
                           4140 ;assno                     Allocated to stack - offset 4
                           4141 ;delay_base                Allocated to registers r4 
                           4142 ;n                         Allocated to stack - offset 5
                           4143 ;delay_onoff               Allocated to registers r2 
                           4144 ;delay_status              Allocated to registers r6 
                           4145 ;gaposh                    Allocated to registers r5 
                           4146 ;delay_zeit                Allocated to stack - offset 6
                           4147 ;delay_target              Allocated to stack - offset 7
                           4148 ;ga                        Allocated to registers r2 r4 
                           4149 ;sloc0                     Allocated to stack - offset 11
                           4150 ;------------------------------------------------------------
                           4151 ;	S:/ELEKTR~1/EIB/C/fn_in8/fb_app_in8.c:136: void eis1(void)				// Ausgänge schalten gemäß EIS 1 Protokoll (an/aus)
                           4152 ;	-----------------------------------------
                           4153 ;	 function eis1
                           4154 ;	-----------------------------------------
   0B4A                    4155 _eis1:
   0B4A C0*00              4156 	push	_bp
                           4157 ;	peephole 177.h	optimized mov sequence
   0B4C E5 81              4158 	mov	a,sp
   0B4E F5*00              4159 	mov	_bp,a
   0B50 24 0B              4160 	add	a,#0x0b
   0B52 F5 81              4161 	mov	sp,a
                           4162 ;	S:/ELEKTR~1/EIB/C/fn_in8/fb_app_in8.c:143: ga=telegramm[3];
                           4163 ;	genPointerGet
                           4164 ;	genNearPointerGet
                           4165 ;	genDataPointerGet
   0B54 85*03 82           4166 	mov	dpl,(_telegramm + 0x0003)
                           4167 ;	S:/ELEKTR~1/EIB/C/fn_in8/fb_app_in8.c:145: ga=ga+telegramm[4];
                           4168 ;	genAssign
                           4169 ;	S:/ELEKTR~1/EIB/C/fn_in8/fb_app_in8.c:149: gapos=gapos_in_gat(telegramm[3],telegramm[4]);
                           4170 ;	genIpush
   0B57 C0*04              4171 	push	0x0004 + _telegramm
                           4172 ;	genCall
   0B59 12s07rF2           4173 	lcall	_gapos_in_gat
   0B5C AA 82              4174 	mov	r2,dpl
   0B5E 15 81              4175 	dec	sp
                           4176 ;	genAssign
   0B60 A8*00              4177 	mov	r0,_bp
   0B62 08                 4178 	inc	r0
   0B63 08                 4179 	inc	r0
   0B64 08                 4180 	inc	r0
   0B65 A6 02              4181 	mov	@r0,ar2
                           4182 ;	S:/ELEKTR~1/EIB/C/fn_in8/fb_app_in8.c:150: if (gapos!=0xFF)	
                           4183 ;	genCmpEq
   0B67 A8*00              4184 	mov	r0,_bp
   0B69 08                 4185 	inc	r0
   0B6A 08                 4186 	inc	r0
   0B6B 08                 4187 	inc	r0
                           4188 ;	gencjneshort
   0B6C B6 FF 03           4189 	cjne	@r0,#0xFF,00177$
   0B6F 02s10r94           4190 	ljmp	00151$
   0B72                    4191 00177$:
                           4192 ;	S:/ELEKTR~1/EIB/C/fn_in8/fb_app_in8.c:152: send_ack();
                           4193 ;	genCall
   0B72 12s05r29           4194 	lcall	_send_ack
                           4195 ;	S:/ELEKTR~1/EIB/C/fn_in8/fb_app_in8.c:153: atp=read_byte(0x01,0x11);			// Association Table Pointer
                           4196 ;	genIpush
   0B75 74 11              4197 	mov	a,#0x11
   0B77 C0 E0              4198 	push	acc
                           4199 ;	genCall
   0B79 75 82 01           4200 	mov	dpl,#0x01
   0B7C 12s02r55           4201 	lcall	_read_byte
   0B7F AB 82              4202 	mov	r3,dpl
   0B81 15 81              4203 	dec	sp
                           4204 ;	genAssign
                           4205 ;	S:/ELEKTR~1/EIB/C/fn_in8/fb_app_in8.c:154: assno=read_byte(0x01,atp);		// Erster Eintrag = Anzahl Einträge
                           4206 ;	genIpush
   0B83 C0 03              4207 	push	ar3
   0B85 C0 03              4208 	push	ar3
                           4209 ;	genCall
   0B87 75 82 01           4210 	mov	dpl,#0x01
   0B8A 12s02r55           4211 	lcall	_read_byte
   0B8D AC 82              4212 	mov	r4,dpl
   0B8F 15 81              4213 	dec	sp
   0B91 D0 03              4214 	pop	ar3
                           4215 ;	genAssign
   0B93 E5*00              4216 	mov	a,_bp
   0B95 24 04              4217 	add	a,#0x04
   0B97 F8                 4218 	mov	r0,a
   0B98 A6 04              4219 	mov	@r0,ar4
                           4220 ;	S:/ELEKTR~1/EIB/C/fn_in8/fb_app_in8.c:156: for(n=0;n<assno;n++)				// Schleife über alle Einträge in der Ass-Table, denn es könnten mehrere Objekte (Pins) der gleichen Gruppenadresse zugeordnet sein
                           4221 ;	genPlus
                           4222 ;     genPlusIncr
   0B9A 74 02              4223 	mov	a,#0x02
                           4224 ;	Peephole 236.a	used r3 instead of ar3
   0B9C 2B                 4225 	add	a,r3
   0B9D FD                 4226 	mov	r5,a
                           4227 ;	genPlus
                           4228 ;     genPlusIncr
   0B9E 0B                 4229 	inc	r3
                           4230 ;	genAssign
   0B9F E5*00              4231 	mov	a,_bp
   0BA1 24 05              4232 	add	a,#0x05
   0BA3 F8                 4233 	mov	r0,a
   0BA4 76 00              4234 	mov	@r0,#0x00
   0BA6                    4235 00147$:
                           4236 ;	genCmpLt
   0BA6 E5*00              4237 	mov	a,_bp
   0BA8 24 05              4238 	add	a,#0x05
   0BAA F8                 4239 	mov	r0,a
   0BAB E5*00              4240 	mov	a,_bp
   0BAD 24 04              4241 	add	a,#0x04
   0BAF F9                 4242 	mov	r1,a
                           4243 ;	genCmp
   0BB0 C3                 4244 	clr	c
   0BB1 E6                 4245 	mov	a,@r0
   0BB2 97                 4246 	subb	a,@r1
                           4247 ;	genIfxJump
   0BB3 40 03              4248 	jc	00178$
   0BB5 02s10r94           4249 	ljmp	00151$
   0BB8                    4250 00178$:
                           4251 ;	S:/ELEKTR~1/EIB/C/fn_in8/fb_app_in8.c:158: gaposh=read_byte(0x01,atp+1+(n*2));
                           4252 ;	genIpush
   0BB8 C0 05              4253 	push	ar5
                           4254 ;	genLeftShift
                           4255 ;	genLeftShiftLiteral
   0BBA E5*00              4256 	mov	a,_bp
   0BBC 24 05              4257 	add	a,#0x05
   0BBE F8                 4258 	mov	r0,a
                           4259 ;	genlshOne
   0BBF E6                 4260 	mov	a,@r0
   0BC0 25 E0              4261 	add	a,acc
                           4262 ;	genPlus
   0BC2 FF                 4263 	mov	r7,a
                           4264 ;	Peephole 177.b	removed redundant mov
                           4265 ;	Peephole 236.a	used r3 instead of ar3
   0BC3 2B                 4266 	add	a,r3
   0BC4 FD                 4267 	mov	r5,a
                           4268 ;	genIpush
   0BC5 C0 03              4269 	push	ar3
   0BC7 C0 07              4270 	push	ar7
   0BC9 C0 05              4271 	push	ar5
                           4272 ;	genCall
   0BCB 75 82 01           4273 	mov	dpl,#0x01
   0BCE 12s02r55           4274 	lcall	_read_byte
   0BD1 AD 82              4275 	mov	r5,dpl
   0BD3 15 81              4276 	dec	sp
   0BD5 D0 07              4277 	pop	ar7
   0BD7 D0 03              4278 	pop	ar3
                           4279 ;	genAssign
                           4280 ;	S:/ELEKTR~1/EIB/C/fn_in8/fb_app_in8.c:159: if(gapos==gaposh)					// Wenn Positionsnummer übereinstimmt
                           4281 ;	genCmpEq
   0BD9 A8*00              4282 	mov	r0,_bp
   0BDB 08                 4283 	inc	r0
   0BDC 08                 4284 	inc	r0
   0BDD 08                 4285 	inc	r0
                           4286 ;	gencjne
                           4287 ;	gencjneshort
   0BDE E6                 4288 	mov	a,@r0
   0BDF B5 05 04           4289 	cjne	a,ar5,00179$
   0BE2 74 01              4290 	mov	a,#0x01
   0BE4 80 01              4291 	sjmp	00180$
   0BE6                    4292 00179$:
   0BE6 E4                 4293 	clr	a
   0BE7                    4294 00180$:
                           4295 ;	genIpop
   0BE7 D0 05              4296 	pop	ar5
                           4297 ;	genIfx
                           4298 ;	genIfxJump
   0BE9 70 03              4299 	jnz	00181$
   0BEB 02s10r8B           4300 	ljmp	00149$
   0BEE                    4301 00181$:
                           4302 ;	S:/ELEKTR~1/EIB/C/fn_in8/fb_app_in8.c:161: objno=read_byte(0x01,atp+2+(n*2));			// Objektnummer
                           4303 ;	genIpush
   0BEE C0 03              4304 	push	ar3
                           4305 ;	genPlus
                           4306 ;	Peephole 236.g	used r7 instead of ar7
   0BF0 EF                 4307 	mov	a,r7
                           4308 ;	Peephole 236.a	used r5 instead of ar5
   0BF1 2D                 4309 	add	a,r5
   0BF2 FF                 4310 	mov	r7,a
                           4311 ;	genIpush
   0BF3 C0 03              4312 	push	ar3
   0BF5 C0 05              4313 	push	ar5
   0BF7 C0 07              4314 	push	ar7
                           4315 ;	genCall
   0BF9 75 82 01           4316 	mov	dpl,#0x01
   0BFC 12s02r55           4317 	lcall	_read_byte
   0BFF AF 82              4318 	mov	r7,dpl
   0C01 15 81              4319 	dec	sp
   0C03 D0 05              4320 	pop	ar5
   0C05 D0 03              4321 	pop	ar3
                           4322 ;	genAssign
                           4323 ;	S:/ELEKTR~1/EIB/C/fn_in8/fb_app_in8.c:162: objflags=read_objflags(objno);			// Objekt Flags lesen
                           4324 ;	genCall
   0C07 8F 82              4325 	mov	dpl,r7
   0C09 C0 05              4326 	push	ar5
   0C0B C0 07              4327 	push	ar7
   0C0D 12s06rCA           4328 	lcall	_read_objflags
   0C10 AB 82              4329 	mov	r3,dpl
   0C12 D0 07              4330 	pop	ar7
   0C14 D0 05              4331 	pop	ar5
                           4332 ;	genAssign
   0C16 A8*00              4333 	mov	r0,_bp
   0C18 08                 4334 	inc	r0
   0C19 08                 4335 	inc	r0
   0C1A A6 03              4336 	mov	@r0,ar3
                           4337 ;	S:/ELEKTR~1/EIB/C/fn_in8/fb_app_in8.c:163: if((objflags&0x04)==0x04)				// Kommunikation zulässig (Bit 2 = communication enable) 
                           4338 ;	genAnd
   0C1C A8*00              4339 	mov	r0,_bp
   0C1E 08                 4340 	inc	r0
   0C1F 08                 4341 	inc	r0
   0C20 74 04              4342 	mov	a,#0x04
   0C22 56                 4343 	anl	a,@r0
   0C23 FB                 4344 	mov	r3,a
                           4345 ;	genCmpEq
                           4346 ;	gencjne
                           4347 ;	gencjneshort
                           4348 ;	Peephole 241.d	optimized compare
   0C24 E4                 4349 	clr	a
   0C25 BB 04 01           4350 	cjne	r3,#0x04,00182$
   0C28 04                 4351 	inc	a
   0C29                    4352 00182$:
                           4353 ;	Peephole 300	removed redundant label 00183$
                           4354 ;	genIpop
   0C29 D0 03              4355 	pop	ar3
                           4356 ;	genIfx
                           4357 ;	genIfxJump
   0C2B 70 03              4358 	jnz	00184$
   0C2D 02s10r8B           4359 	ljmp	00149$
   0C30                    4360 00184$:
                           4361 ;	S:/ELEKTR~1/EIB/C/fn_in8/fb_app_in8.c:165: port_pattern=0x01<<objno;
                           4362 ;	genIpush
   0C30 C0 05              4363 	push	ar5
                           4364 ;	genLeftShift
   0C32 8F F0              4365 	mov	b,r7
   0C34 05 F0              4366 	inc	b
   0C36 A8*00              4367 	mov	r0,_bp
   0C38 08                 4368 	inc	r0
   0C39 74 01              4369 	mov	a,#0x01
   0C3B 80 02              4370 	sjmp	00187$
   0C3D                    4371 00185$:
   0C3D 25 E0              4372 	add	a,acc
   0C3F                    4373 00187$:
   0C3F D5 F0 FB           4374 	djnz	b,00185$
   0C42 F6                 4375 	mov	@r0,a
                           4376 ;	S:/ELEKTR~1/EIB/C/fn_in8/fb_app_in8.c:166: if((port_pattern&pdir)==port_pattern)		// Portpin darf beschrieben werden
                           4377 ;	genAnd
   0C43 A8*00              4378 	mov	r0,_bp
   0C45 08                 4379 	inc	r0
   0C46 E5*27              4380 	mov	a,_pdir
   0C48 56                 4381 	anl	a,@r0
   0C49 FD                 4382 	mov	r5,a
                           4383 ;	genCmpEq
   0C4A A8*00              4384 	mov	r0,_bp
   0C4C 08                 4385 	inc	r0
                           4386 ;	gencjne
                           4387 ;	gencjneshort
   0C4D E6                 4388 	mov	a,@r0
   0C4E B5 05 04           4389 	cjne	a,ar5,00188$
   0C51 74 01              4390 	mov	a,#0x01
   0C53 80 01              4391 	sjmp	00189$
   0C55                    4392 00188$:
   0C55 E4                 4393 	clr	a
   0C56                    4394 00189$:
                           4395 ;	genIpop
   0C56 D0 05              4396 	pop	ar5
                           4397 ;	genIfx
                           4398 ;	genIfxJump
   0C58 70 03              4399 	jnz	00190$
   0C5A 02s10r52           4400 	ljmp	00134$
   0C5D                    4401 00190$:
                           4402 ;	S:/ELEKTR~1/EIB/C/fn_in8/fb_app_in8.c:168: if((objflags&0x10)==0x10)				// Schreiben zulässig (Bit 4 = write enable)
                           4403 ;	genIpush
   0C5D C0 05              4404 	push	ar5
                           4405 ;	genAnd
   0C5F A8*00              4406 	mov	r0,_bp
   0C61 08                 4407 	inc	r0
   0C62 08                 4408 	inc	r0
   0C63 74 10              4409 	mov	a,#0x10
   0C65 56                 4410 	anl	a,@r0
   0C66 FD                 4411 	mov	r5,a
                           4412 ;	genCmpEq
                           4413 ;	gencjne
                           4414 ;	gencjneshort
                           4415 ;	Peephole 241.d	optimized compare
   0C67 E4                 4416 	clr	a
   0C68 BD 10 01           4417 	cjne	r5,#0x10,00191$
   0C6B 04                 4418 	inc	a
   0C6C                    4419 00191$:
                           4420 ;	Peephole 300	removed redundant label 00192$
                           4421 ;	genIpop
   0C6C D0 05              4422 	pop	ar5
                           4423 ;	genIfx
                           4424 ;	genIfxJump
   0C6E 70 03              4425 	jnz	00193$
   0C70 02s10r52           4426 	ljmp	00134$
   0C73                    4427 00193$:
                           4428 ;	S:/ELEKTR~1/EIB/C/fn_in8/fb_app_in8.c:170: delay_base=read_byte(0x01,(((objno+1)>>1)+DELAYTAB));   
                           4429 ;	genIpush
   0C73 C0 05              4430 	push	ar5
                           4431 ;	genCast
   0C75 8F 05              4432 	mov	ar5,r7
   0C77 7A 00              4433 	mov	r2,#0x00
                           4434 ;	genPlus
                           4435 ;     genPlusIncr
   0C79 0D                 4436 	inc	r5
   0C7A BD 00 01           4437 	cjne	r5,#0x00,00194$
   0C7D 0A                 4438 	inc	r2
   0C7E                    4439 00194$:
                           4440 ;	genRightShift
                           4441 ;	genSignedRightShift
                           4442 ;	genRightShiftLiteral
                           4443 ;	genrshTwo
   0C7E EA                 4444 	mov	a,r2
   0C7F A2 E7              4445 	mov	c,acc.7
   0C81 13                 4446 	rrc	a
   0C82 CD                 4447 	xch	a,r5
   0C83 13                 4448 	rrc	a
   0C84 CD                 4449 	xch	a,r5
   0C85 FA                 4450 	mov	r2,a
                           4451 ;	genCast
                           4452 ;	genPlus
                           4453 ;     genPlusIncr
   0C86 74 F9              4454 	mov	a,#0xF9
                           4455 ;	Peephole 236.a	used r5 instead of ar5
   0C88 2D                 4456 	add	a,r5
   0C89 FD                 4457 	mov	r5,a
                           4458 ;	genIpush
   0C8A C0 03              4459 	push	ar3
   0C8C C0 05              4460 	push	ar5
   0C8E C0 07              4461 	push	ar7
   0C90 C0 05              4462 	push	ar5
                           4463 ;	genCall
   0C92 75 82 01           4464 	mov	dpl,#0x01
   0C95 12s02r55           4465 	lcall	_read_byte
   0C98 AA 82              4466 	mov	r2,dpl
   0C9A 15 81              4467 	dec	sp
   0C9C D0 07              4468 	pop	ar7
   0C9E D0 05              4469 	pop	ar5
   0CA0 D0 03              4470 	pop	ar3
                           4471 ;	genAssign
   0CA2 8A 04              4472 	mov	ar4,r2
                           4473 ;	S:/ELEKTR~1/EIB/C/fn_in8/fb_app_in8.c:171: if((objno&0x01)==0x01) delay_base&=0x0F;
                           4474 ;	genAnd
   0CA4 74 01              4475 	mov	a,#0x01
   0CA6 5F                 4476 	anl	a,r7
   0CA7 FA                 4477 	mov	r2,a
                           4478 ;	genCmpEq
                           4479 ;	gencjne
                           4480 ;	gencjneshort
                           4481 ;	Peephole 241.d	optimized compare
   0CA8 E4                 4482 	clr	a
   0CA9 BA 01 01           4483 	cjne	r2,#0x01,00195$
   0CAC 04                 4484 	inc	a
   0CAD                    4485 00195$:
                           4486 ;	Peephole 300	removed redundant label 00196$
                           4487 ;	genIpop
   0CAD D0 05              4488 	pop	ar5
                           4489 ;	genIfx
                           4490 ;	genIfxJump
                           4491 ;	Peephole 108.c	removed ljmp by inverse jump logic
   0CAF 60 05              4492 	jz	00102$
                           4493 ;	Peephole 300	removed redundant label 00197$
                           4494 ;	genAnd
   0CB1 53 04 0F           4495 	anl	ar4,#0x0F
                           4496 ;	Peephole 112.b	changed ljmp to sjmp
   0CB4 80 08              4497 	sjmp	00103$
   0CB6                    4498 00102$:
                           4499 ;	S:/ELEKTR~1/EIB/C/fn_in8/fb_app_in8.c:172: else delay_base=(delay_base&0xF0)>>4;
                           4500 ;	genAnd
   0CB6 74 F0              4501 	mov	a,#0xF0
   0CB8 5C                 4502 	anl	a,r4
                           4503 ;	genRightShift
                           4504 ;	genRightShiftLiteral
                           4505 ;	genrshOne
   0CB9 FA                 4506 	mov	r2,a
                           4507 ;	Peephole 105	removed redundant mov
   0CBA C4                 4508 	swap	a
   0CBB 54 0F              4509 	anl	a,#0x0f
   0CBD FC                 4510 	mov	r4,a
   0CBE                    4511 00103$:
                           4512 ;	S:/ELEKTR~1/EIB/C/fn_in8/fb_app_in8.c:174: delay_onoff=0;
                           4513 ;	genIpush
   0CBE C0 05              4514 	push	ar5
                           4515 ;	genAssign
   0CC0 7A 00              4516 	mov	r2,#0x00
                           4517 ;	S:/ELEKTR~1/EIB/C/fn_in8/fb_app_in8.c:175: delay_status=0;
                           4518 ;	genAssign
   0CC2 7E 00              4519 	mov	r6,#0x00
                           4520 ;	S:/ELEKTR~1/EIB/C/fn_in8/fb_app_in8.c:176: delay_zeit=read_byte(0x01,0xEA);
                           4521 ;	genIpush
   0CC4 C0 02              4522 	push	ar2
   0CC6 C0 03              4523 	push	ar3
   0CC8 C0 04              4524 	push	ar4
   0CCA C0 06              4525 	push	ar6
   0CCC C0 07              4526 	push	ar7
   0CCE 74 EA              4527 	mov	a,#0xEA
   0CD0 C0 E0              4528 	push	acc
                           4529 ;	genCall
   0CD2 75 82 01           4530 	mov	dpl,#0x01
   0CD5 12s02r55           4531 	lcall	_read_byte
   0CD8 AD 82              4532 	mov	r5,dpl
   0CDA 15 81              4533 	dec	sp
   0CDC D0 07              4534 	pop	ar7
   0CDE D0 06              4535 	pop	ar6
   0CE0 D0 04              4536 	pop	ar4
   0CE2 D0 03              4537 	pop	ar3
   0CE4 D0 02              4538 	pop	ar2
                           4539 ;	genAssign
   0CE6 E5*00              4540 	mov	a,_bp
   0CE8 24 06              4541 	add	a,#0x06
   0CEA F8                 4542 	mov	r0,a
   0CEB A6 05              4543 	mov	@r0,ar5
                           4544 ;	S:/ELEKTR~1/EIB/C/fn_in8/fb_app_in8.c:177: delay_zeit=((delay_zeit>>objno)&0x01);
                           4545 ;	genRightShift
   0CED 8F F0              4546 	mov	b,r7
   0CEF 05 F0              4547 	inc	b
   0CF1 E5*00              4548 	mov	a,_bp
   0CF3 24 06              4549 	add	a,#0x06
   0CF5 F8                 4550 	mov	r0,a
   0CF6 E6                 4551 	mov	a,@r0
   0CF7 80 02              4552 	sjmp	00199$
   0CF9                    4553 00198$:
   0CF9 C3                 4554 	clr	c
   0CFA 13                 4555 	rrc	a
   0CFB                    4556 00199$:
   0CFB D5 F0 FB           4557 	djnz	b,00198$
   0CFE FD                 4558 	mov	r5,a
                           4559 ;	genAnd
   0CFF E5*00              4560 	mov	a,_bp
   0D01 24 06              4561 	add	a,#0x06
   0D03 F8                 4562 	mov	r0,a
   0D04 74 01              4563 	mov	a,#0x01
   0D06 5D                 4564 	anl	a,r5
   0D07 F6                 4565 	mov	@r0,a
                           4566 ;	S:/ELEKTR~1/EIB/C/fn_in8/fb_app_in8.c:179: switch (telegramm[7])
                           4567 ;	genPointerGet
                           4568 ;	genNearPointerGet
                           4569 ;	genDataPointerGet
   0D08 E5*00              4570 	mov	a,_bp
   0D0A 24 0B              4571 	add	a,#0x0b
   0D0C F8                 4572 	mov	r0,a
   0D0D A6*07              4573 	mov	@r0,(_telegramm + 0x0007)
                           4574 ;	genCmpEq
   0D0F E5*00              4575 	mov	a,_bp
   0D11 24 0B              4576 	add	a,#0x0b
   0D13 F8                 4577 	mov	r0,a
                           4578 ;	gencjne
                           4579 ;	gencjneshort
                           4580 ;	Peephole 241.h	optimized compare
   0D14 E4                 4581 	clr	a
   0D15 B6 80 01           4582 	cjne	@r0,#0x80,00200$
   0D18 04                 4583 	inc	a
   0D19                    4584 00200$:
                           4585 ;	Peephole 300	removed redundant label 00201$
                           4586 ;	genIpop
   0D19 D0 05              4587 	pop	ar5
                           4588 ;	genIfx
                           4589 ;	genIfxJump
                           4590 ;	Peephole 108.b	removed ljmp by inverse jump logic
   0D1B 70 0E              4591 	jnz	00104$
                           4592 ;	Peephole 300	removed redundant label 00202$
                           4593 ;	genCmpEq
   0D1D E5*00              4594 	mov	a,_bp
   0D1F 24 0B              4595 	add	a,#0x0b
   0D21 F8                 4596 	mov	r0,a
                           4597 ;	gencjneshort
   0D22 B6 81 03           4598 	cjne	@r0,#0x81,00203$
   0D25 02s0DrAF           4599 	ljmp	00112$
   0D28                    4600 00203$:
   0D28 02s0Er59           4601 	ljmp	00121$
                           4602 ;	S:/ELEKTR~1/EIB/C/fn_in8/fb_app_in8.c:181: case 0x80:					// Ausschalten
   0D2B                    4603 00104$:
                           4604 ;	S:/ELEKTR~1/EIB/C/fn_in8/fb_app_in8.c:182: delay_onoff=read_byte(0x01,(objno+0xE2));
                           4605 ;	genIpush
   0D2B C0 05              4606 	push	ar5
                           4607 ;	genPlus
                           4608 ;     genPlusIncr
   0D2D 74 E2              4609 	mov	a,#0xE2
                           4610 ;	Peephole 236.a	used r7 instead of ar7
   0D2F 2F                 4611 	add	a,r7
   0D30 FD                 4612 	mov	r5,a
                           4613 ;	genIpush
   0D31 C0 03              4614 	push	ar3
   0D33 C0 04              4615 	push	ar4
   0D35 C0 06              4616 	push	ar6
   0D37 C0 07              4617 	push	ar7
   0D39 C0 05              4618 	push	ar5
                           4619 ;	genCall
   0D3B 75 82 01           4620 	mov	dpl,#0x01
   0D3E 12s02r55           4621 	lcall	_read_byte
   0D41 AD 82              4622 	mov	r5,dpl
   0D43 15 81              4623 	dec	sp
   0D45 D0 07              4624 	pop	ar7
   0D47 D0 06              4625 	pop	ar6
   0D49 D0 04              4626 	pop	ar4
   0D4B D0 03              4627 	pop	ar3
                           4628 ;	genAssign
   0D4D 8D 02              4629 	mov	ar2,r5
                           4630 ;	S:/ELEKTR~1/EIB/C/fn_in8/fb_app_in8.c:183: if(delay_onoff==0x00 || delay_zeit==0x01)
                           4631 ;	genIpop
   0D4F D0 05              4632 	pop	ar5
                           4633 ;	genIfx
   0D51 EA                 4634 	mov	a,r2
                           4635 ;	genIfxJump
                           4636 ;	Peephole 108.c	removed ljmp by inverse jump logic
   0D52 60 08              4637 	jz	00108$
                           4638 ;	Peephole 300	removed redundant label 00204$
                           4639 ;	genCmpEq
   0D54 E5*00              4640 	mov	a,_bp
   0D56 24 06              4641 	add	a,#0x06
   0D58 F8                 4642 	mov	r0,a
                           4643 ;	gencjneshort
                           4644 ;	Peephole 112.b	changed ljmp to sjmp
                           4645 ;	Peephole 198.b	optimized misc jump sequence
   0D59 B6 01 4E           4646 	cjne	@r0,#0x01,00109$
                           4647 ;	Peephole 200.b	removed redundant sjmp
                           4648 ;	Peephole 300	removed redundant label 00205$
                           4649 ;	Peephole 300	removed redundant label 00206$
   0D5C                    4650 00108$:
                           4651 ;	S:/ELEKTR~1/EIB/C/fn_in8/fb_app_in8.c:185: if (((read_byte(0x01,RELMODE)>>objno)&0x01)==0x00)
                           4652 ;	genIpush
   0D5C C0 05              4653 	push	ar5
                           4654 ;	genIpush
   0D5E C0 02              4655 	push	ar2
   0D60 C0 03              4656 	push	ar3
   0D62 C0 04              4657 	push	ar4
   0D64 C0 06              4658 	push	ar6
   0D66 C0 07              4659 	push	ar7
   0D68 74 F2              4660 	mov	a,#0xF2
   0D6A C0 E0              4661 	push	acc
                           4662 ;	genCall
   0D6C 75 82 01           4663 	mov	dpl,#0x01
   0D6F 12s02r55           4664 	lcall	_read_byte
   0D72 AD 82              4665 	mov	r5,dpl
   0D74 15 81              4666 	dec	sp
   0D76 D0 07              4667 	pop	ar7
   0D78 D0 06              4668 	pop	ar6
   0D7A D0 04              4669 	pop	ar4
   0D7C D0 03              4670 	pop	ar3
   0D7E D0 02              4671 	pop	ar2
                           4672 ;	genRightShift
   0D80 8F F0              4673 	mov	b,r7
   0D82 05 F0              4674 	inc	b
   0D84 ED                 4675 	mov	a,r5
   0D85 80 02              4676 	sjmp	00208$
   0D87                    4677 00207$:
   0D87 C3                 4678 	clr	c
   0D88 13                 4679 	rrc	a
   0D89                    4680 00208$:
   0D89 D5 F0 FB           4681 	djnz	b,00207$
                           4682 ;	genAnd
   0D8C 54 01              4683 	anl	a,#0x01
                           4684 ;	genIpop
   0D8E D0 05              4685 	pop	ar5
                           4686 ;	genIfx
                           4687 ;	genIfxJump
                           4688 ;	Peephole 108.b	removed ljmp by inverse jump logic
   0D90 70 0F              4689 	jnz	00106$
                           4690 ;	Peephole 300	removed redundant label 00209$
                           4691 ;	S:/ELEKTR~1/EIB/C/fn_in8/fb_app_in8.c:187: portbuffer=portbuffer&~port_pattern;		// sofort ausschalten (Schliesserbetrieb)
                           4692 ;	genIpush
   0D92 C0 05              4693 	push	ar5
                           4694 ;	genCpl
   0D94 A8*00              4695 	mov	r0,_bp
   0D96 08                 4696 	inc	r0
   0D97 E6                 4697 	mov	a,@r0
   0D98 F4                 4698 	cpl	a
                           4699 ;	genAnd
   0D99 FD                 4700 	mov	r5,a
                           4701 ;	Peephole 105	removed redundant mov
   0D9A 52*1F              4702 	anl	_portbuffer,a
                           4703 ;	genIpop
   0D9C D0 05              4704 	pop	ar5
   0D9E 02s0Er59           4705 	ljmp	00121$
   0DA1                    4706 00106$:
                           4707 ;	S:/ELEKTR~1/EIB/C/fn_in8/fb_app_in8.c:191: portbuffer=portbuffer|port_pattern;		// sofort ausschalten (Öffnerbetrieb)
                           4708 ;	genOr
   0DA1 A8*00              4709 	mov	r0,_bp
   0DA3 08                 4710 	inc	r0
   0DA4 E6                 4711 	mov	a,@r0
   0DA5 42*1F              4712 	orl	_portbuffer,a
   0DA7 02s0Er59           4713 	ljmp	00121$
   0DAA                    4714 00109$:
                           4715 ;	S:/ELEKTR~1/EIB/C/fn_in8/fb_app_in8.c:196: delay_status=0x80;				// verzögert
                           4716 ;	genAssign
   0DAA 7E 80              4717 	mov	r6,#0x80
                           4718 ;	S:/ELEKTR~1/EIB/C/fn_in8/fb_app_in8.c:198: break;
   0DAC 02s0Er59           4719 	ljmp	00121$
                           4720 ;	S:/ELEKTR~1/EIB/C/fn_in8/fb_app_in8.c:199: case 0x81:					// Einschalten
   0DAF                    4721 00112$:
                           4722 ;	S:/ELEKTR~1/EIB/C/fn_in8/fb_app_in8.c:200: delay_onoff=read_byte(0x01,(objno+0xDA));
                           4723 ;	genIpush
   0DAF C0 05              4724 	push	ar5
                           4725 ;	genPlus
                           4726 ;     genPlusIncr
   0DB1 74 DA              4727 	mov	a,#0xDA
                           4728 ;	Peephole 236.a	used r7 instead of ar7
   0DB3 2F                 4729 	add	a,r7
   0DB4 FD                 4730 	mov	r5,a
                           4731 ;	genIpush
   0DB5 C0 03              4732 	push	ar3
   0DB7 C0 04              4733 	push	ar4
   0DB9 C0 06              4734 	push	ar6
   0DBB C0 07              4735 	push	ar7
   0DBD C0 05              4736 	push	ar5
                           4737 ;	genCall
   0DBF 75 82 01           4738 	mov	dpl,#0x01
   0DC2 12s02r55           4739 	lcall	_read_byte
   0DC5 AD 82              4740 	mov	r5,dpl
   0DC7 15 81              4741 	dec	sp
   0DC9 D0 07              4742 	pop	ar7
   0DCB D0 06              4743 	pop	ar6
   0DCD D0 04              4744 	pop	ar4
   0DCF D0 03              4745 	pop	ar3
                           4746 ;	genAssign
   0DD1 8D 02              4747 	mov	ar2,r5
                           4748 ;	S:/ELEKTR~1/EIB/C/fn_in8/fb_app_in8.c:201: if(delay_onoff==0x00)
                           4749 ;	genIpop
   0DD3 D0 05              4750 	pop	ar5
                           4751 ;	genIfx
   0DD5 EA                 4752 	mov	a,r2
                           4753 ;	genIfxJump
   0DD6 60 03              4754 	jz	00210$
   0DD8 02s0Er57           4755 	ljmp	00119$
   0DDB                    4756 00210$:
                           4757 ;	S:/ELEKTR~1/EIB/C/fn_in8/fb_app_in8.c:203: if(delay_zeit==0x01) 			// Zeitschaltfunktion 
                           4758 ;	genCmpEq
   0DDB E5*00              4759 	mov	a,_bp
   0DDD 24 06              4760 	add	a,#0x06
   0DDF F8                 4761 	mov	r0,a
                           4762 ;	gencjneshort
                           4763 ;	Peephole 112.b	changed ljmp to sjmp
                           4764 ;	Peephole 198.b	optimized misc jump sequence
   0DE0 B6 01 28           4765 	cjne	@r0,#0x01,00114$
                           4766 ;	Peephole 200.b	removed redundant sjmp
                           4767 ;	Peephole 300	removed redundant label 00211$
                           4768 ;	Peephole 300	removed redundant label 00212$
                           4769 ;	S:/ELEKTR~1/EIB/C/fn_in8/fb_app_in8.c:205: delay_status=0x80;
                           4770 ;	genIpush
   0DE3 C0 05              4771 	push	ar5
                           4772 ;	genAssign
   0DE5 7E 80              4773 	mov	r6,#0x80
                           4774 ;	S:/ELEKTR~1/EIB/C/fn_in8/fb_app_in8.c:206: delay_onoff=read_byte(0x01,(objno+0xE2));
                           4775 ;	genPlus
                           4776 ;     genPlusIncr
   0DE7 74 E2              4777 	mov	a,#0xE2
                           4778 ;	Peephole 236.a	used r7 instead of ar7
   0DE9 2F                 4779 	add	a,r7
   0DEA FD                 4780 	mov	r5,a
                           4781 ;	genIpush
   0DEB C0 03              4782 	push	ar3
   0DED C0 04              4783 	push	ar4
   0DEF C0 06              4784 	push	ar6
   0DF1 C0 07              4785 	push	ar7
   0DF3 C0 05              4786 	push	ar5
                           4787 ;	genCall
   0DF5 75 82 01           4788 	mov	dpl,#0x01
   0DF8 12s02r55           4789 	lcall	_read_byte
   0DFB AD 82              4790 	mov	r5,dpl
   0DFD 15 81              4791 	dec	sp
   0DFF D0 07              4792 	pop	ar7
   0E01 D0 06              4793 	pop	ar6
   0E03 D0 04              4794 	pop	ar4
   0E05 D0 03              4795 	pop	ar3
                           4796 ;	genAssign
   0E07 8D 02              4797 	mov	ar2,r5
                           4798 ;	S:/ELEKTR~1/EIB/C/fn_in8/fb_app_in8.c:156: for(n=0;n<assno;n++)				// Schleife über alle Einträge in der Ass-Table, denn es könnten mehrere Objekte (Pins) der gleichen Gruppenadresse zugeordnet sein
                           4799 ;	genIpop
   0E09 D0 05              4800 	pop	ar5
                           4801 ;	S:/ELEKTR~1/EIB/C/fn_in8/fb_app_in8.c:206: delay_onoff=read_byte(0x01,(objno+0xE2));
   0E0B                    4802 00114$:
                           4803 ;	S:/ELEKTR~1/EIB/C/fn_in8/fb_app_in8.c:208: if (((read_byte(0x01,RELMODE)>>objno)&0x01)==0x00)
                           4804 ;	genIpush
   0E0B C0 05              4805 	push	ar5
                           4806 ;	genIpush
   0E0D C0 02              4807 	push	ar2
   0E0F C0 03              4808 	push	ar3
   0E11 C0 04              4809 	push	ar4
   0E13 C0 06              4810 	push	ar6
   0E15 C0 07              4811 	push	ar7
   0E17 74 F2              4812 	mov	a,#0xF2
   0E19 C0 E0              4813 	push	acc
                           4814 ;	genCall
   0E1B 75 82 01           4815 	mov	dpl,#0x01
   0E1E 12s02r55           4816 	lcall	_read_byte
   0E21 AD 82              4817 	mov	r5,dpl
   0E23 15 81              4818 	dec	sp
   0E25 D0 07              4819 	pop	ar7
   0E27 D0 06              4820 	pop	ar6
   0E29 D0 04              4821 	pop	ar4
   0E2B D0 03              4822 	pop	ar3
   0E2D D0 02              4823 	pop	ar2
                           4824 ;	genRightShift
   0E2F 8F F0              4825 	mov	b,r7
   0E31 05 F0              4826 	inc	b
   0E33 ED                 4827 	mov	a,r5
   0E34 80 02              4828 	sjmp	00214$
   0E36                    4829 00213$:
   0E36 C3                 4830 	clr	c
   0E37 13                 4831 	rrc	a
   0E38                    4832 00214$:
   0E38 D5 F0 FB           4833 	djnz	b,00213$
                           4834 ;	genAnd
   0E3B 54 01              4835 	anl	a,#0x01
                           4836 ;	genIpop
   0E3D D0 05              4837 	pop	ar5
                           4838 ;	genIfx
                           4839 ;	genIfxJump
                           4840 ;	Peephole 108.b	removed ljmp by inverse jump logic
   0E3F 70 08              4841 	jnz	00116$
                           4842 ;	Peephole 300	removed redundant label 00215$
                           4843 ;	S:/ELEKTR~1/EIB/C/fn_in8/fb_app_in8.c:210: portbuffer=portbuffer|port_pattern;		// sofort einschalten (Schliesserbetrieb)
                           4844 ;	genOr
   0E41 A8*00              4845 	mov	r0,_bp
   0E43 08                 4846 	inc	r0
   0E44 E6                 4847 	mov	a,@r0
   0E45 42*1F              4848 	orl	_portbuffer,a
                           4849 ;	Peephole 112.b	changed ljmp to sjmp
   0E47 80 10              4850 	sjmp	00121$
   0E49                    4851 00116$:
                           4852 ;	S:/ELEKTR~1/EIB/C/fn_in8/fb_app_in8.c:214: portbuffer=portbuffer&~port_pattern;		// sofort einschalten (Öffnerbetrieb)
                           4853 ;	genIpush
   0E49 C0 05              4854 	push	ar5
                           4855 ;	genCpl
   0E4B A8*00              4856 	mov	r0,_bp
   0E4D 08                 4857 	inc	r0
   0E4E E6                 4858 	mov	a,@r0
   0E4F F4                 4859 	cpl	a
                           4860 ;	genAnd
   0E50 FD                 4861 	mov	r5,a
                           4862 ;	Peephole 105	removed redundant mov
   0E51 52*1F              4863 	anl	_portbuffer,a
                           4864 ;	genIpop
   0E53 D0 05              4865 	pop	ar5
                           4866 ;	Peephole 112.b	changed ljmp to sjmp
   0E55 80 02              4867 	sjmp	00121$
   0E57                    4868 00119$:
                           4869 ;	S:/ELEKTR~1/EIB/C/fn_in8/fb_app_in8.c:219: delay_status=0x90;				// verzögert
                           4870 ;	genAssign
   0E57 7E 90              4871 	mov	r6,#0x90
                           4872 ;	S:/ELEKTR~1/EIB/C/fn_in8/fb_app_in8.c:223: }
   0E59                    4873 00121$:
                           4874 ;	S:/ELEKTR~1/EIB/C/fn_in8/fb_app_in8.c:224: if(delay_status!=0)								// wenn Verzögerung, dann timer-Wert schreiben
                           4875 ;	genCmpEq
                           4876 ;	gencjneshort
   0E59 BE 00 03           4877 	cjne	r6,#0x00,00216$
   0E5C 02s0Fr9B           4878 	ljmp	00123$
   0E5F                    4879 00216$:
                           4880 ;	S:/ELEKTR~1/EIB/C/fn_in8/fb_app_in8.c:227: delay_target=delay_onoff;
                           4881 ;	genIpush
   0E5F C0 05              4882 	push	ar5
                           4883 ;	genCast
   0E61 E5*00              4884 	mov	a,_bp
   0E63 24 07              4885 	add	a,#0x07
   0E65 F8                 4886 	mov	r0,a
   0E66 A6 02              4887 	mov	@r0,ar2
   0E68 08                 4888 	inc	r0
   0E69 76 00              4889 	mov	@r0,#0x00
   0E6B 08                 4890 	inc	r0
   0E6C 76 00              4891 	mov	@r0,#0x00
   0E6E 08                 4892 	inc	r0
   0E6F 76 00              4893 	mov	@r0,#0x00
                           4894 ;	S:/ELEKTR~1/EIB/C/fn_in8/fb_app_in8.c:228: delay_target=delay_target<<delay_base;
                           4895 ;	genLeftShift
   0E71 8C F0              4896 	mov	b,r4
   0E73 05 F0              4897 	inc	b
   0E75 E5*00              4898 	mov	a,_bp
   0E77 24 07              4899 	add	a,#0x07
   0E79 F8                 4900 	mov	r0,a
   0E7A 80 13              4901 	sjmp	00218$
   0E7C                    4902 00217$:
   0E7C E6                 4903 	mov	a,@r0
   0E7D 25 E0              4904 	add	a,acc
   0E7F F6                 4905 	mov	@r0,a
   0E80 08                 4906 	inc	r0
   0E81 E6                 4907 	mov	a,@r0
   0E82 33                 4908 	rlc	a
   0E83 F6                 4909 	mov	@r0,a
   0E84 08                 4910 	inc	r0
   0E85 E6                 4911 	mov	a,@r0
   0E86 33                 4912 	rlc	a
   0E87 F6                 4913 	mov	@r0,a
   0E88 08                 4914 	inc	r0
   0E89 E6                 4915 	mov	a,@r0
   0E8A 33                 4916 	rlc	a
   0E8B F6                 4917 	mov	@r0,a
   0E8C 18                 4918 	dec	r0
   0E8D 18                 4919 	dec	r0
   0E8E 18                 4920 	dec	r0
   0E8F                    4921 00218$:
   0E8F D5 F0 EA           4922 	djnz	b,00217$
                           4923 ;	S:/ELEKTR~1/EIB/C/fn_in8/fb_app_in8.c:229: delay_target+=timer;
                           4924 ;	genPlus
   0E92 E5*00              4925 	mov	a,_bp
   0E94 24 07              4926 	add	a,#0x07
   0E96 F8                 4927 	mov	r0,a
   0E97 E5*23              4928 	mov	a,_timer
   0E99 26                 4929 	add	a,@r0
   0E9A F6                 4930 	mov	@r0,a
   0E9B E5*24              4931 	mov	a,(_timer + 1)
   0E9D 08                 4932 	inc	r0
   0E9E 36                 4933 	addc	a,@r0
   0E9F F6                 4934 	mov	@r0,a
   0EA0 E5*25              4935 	mov	a,(_timer + 2)
   0EA2 08                 4936 	inc	r0
   0EA3 36                 4937 	addc	a,@r0
   0EA4 F6                 4938 	mov	@r0,a
   0EA5 E5*26              4939 	mov	a,(_timer + 3)
   0EA7 08                 4940 	inc	r0
   0EA8 36                 4941 	addc	a,@r0
   0EA9 F6                 4942 	mov	@r0,a
                           4943 ;	S:/ELEKTR~1/EIB/C/fn_in8/fb_app_in8.c:231: start_writecycle();
                           4944 ;	genCall
   0EAA C0 03              4945 	push	ar3
   0EAC C0 05              4946 	push	ar5
   0EAE C0 06              4947 	push	ar6
   0EB0 C0 07              4948 	push	ar7
   0EB2 12s01rF6           4949 	lcall	_start_writecycle
   0EB5 D0 07              4950 	pop	ar7
   0EB7 D0 06              4951 	pop	ar6
   0EB9 D0 05              4952 	pop	ar5
   0EBB D0 03              4953 	pop	ar3
                           4954 ;	S:/ELEKTR~1/EIB/C/fn_in8/fb_app_in8.c:232: write_byte(0x00,objno*5,objno+delay_status);
                           4955 ;	genPlus
                           4956 ;	Peephole 236.g	used r6 instead of ar6
   0EBD EE                 4957 	mov	a,r6
                           4958 ;	Peephole 236.a	used r7 instead of ar7
   0EBE 2F                 4959 	add	a,r7
   0EBF FA                 4960 	mov	r2,a
                           4961 ;	genMult
                           4962 ;	genMultOneByte
   0EC0 EF                 4963 	mov	a,r7
   0EC1 75 F0 05           4964 	mov	b,#0x05
   0EC4 A4                 4965 	mul	ab
   0EC5 FC                 4966 	mov	r4,a
                           4967 ;	genIpush
   0EC6 C0 03              4968 	push	ar3
   0EC8 C0 04              4969 	push	ar4
   0ECA C0 05              4970 	push	ar5
   0ECC C0 07              4971 	push	ar7
   0ECE C0 02              4972 	push	ar2
                           4973 ;	genIpush
   0ED0 C0 04              4974 	push	ar4
                           4975 ;	genCall
   0ED2 75 82 00           4976 	mov	dpl,#0x00
   0ED5 12s01rFE           4977 	lcall	_write_byte
   0ED8 15 81              4978 	dec	sp
   0EDA 15 81              4979 	dec	sp
   0EDC D0 07              4980 	pop	ar7
   0EDE D0 05              4981 	pop	ar5
   0EE0 D0 04              4982 	pop	ar4
   0EE2 D0 03              4983 	pop	ar3
                           4984 ;	S:/ELEKTR~1/EIB/C/fn_in8/fb_app_in8.c:233: write_byte(0x00,1+objno*5,delay_target>>24);
                           4985 ;	genGetByte
   0EE4 E5*00              4986 	mov	a,_bp
   0EE6 24 07              4987 	add	a,#0x07
                           4988 ;	Peephole 185	changed order of increment (acc incremented also!)
   0EE8 04                 4989 	inc	a
                           4990 ;	Peephole 185	changed order of increment (acc incremented also!)
   0EE9 04                 4991 	inc	a
                           4992 ;	Peephole 185	changed order of increment (acc incremented also!)
   0EEA 04                 4993 	inc	a
   0EEB F8                 4994 	mov	r0,a
   0EEC 86 02              4995 	mov	ar2,@r0
                           4996 ;	genPlus
                           4997 ;     genPlusIncr
   0EEE 74 01              4998 	mov	a,#0x01
                           4999 ;	Peephole 236.a	used r4 instead of ar4
   0EF0 2C                 5000 	add	a,r4
   0EF1 FD                 5001 	mov	r5,a
                           5002 ;	genIpush
   0EF2 C0 03              5003 	push	ar3
   0EF4 C0 04              5004 	push	ar4
   0EF6 C0 05              5005 	push	ar5
   0EF8 C0 07              5006 	push	ar7
   0EFA C0 02              5007 	push	ar2
                           5008 ;	genIpush
   0EFC C0 05              5009 	push	ar5
                           5010 ;	genCall
   0EFE 75 82 00           5011 	mov	dpl,#0x00
   0F01 12s01rFE           5012 	lcall	_write_byte
   0F04 15 81              5013 	dec	sp
   0F06 15 81              5014 	dec	sp
   0F08 D0 07              5015 	pop	ar7
   0F0A D0 05              5016 	pop	ar5
   0F0C D0 04              5017 	pop	ar4
   0F0E D0 03              5018 	pop	ar3
                           5019 ;	S:/ELEKTR~1/EIB/C/fn_in8/fb_app_in8.c:234: write_byte(0x00,2+objno*5,delay_target>>16);
                           5020 ;	genGetByte
   0F10 E5*00              5021 	mov	a,_bp
   0F12 24 07              5022 	add	a,#0x07
                           5023 ;	Peephole 185	changed order of increment (acc incremented also!)
   0F14 04                 5024 	inc	a
                           5025 ;	Peephole 185	changed order of increment (acc incremented also!)
   0F15 04                 5026 	inc	a
   0F16 F8                 5027 	mov	r0,a
   0F17 86 02              5028 	mov	ar2,@r0
                           5029 ;	genPlus
                           5030 ;     genPlusIncr
   0F19 74 02              5031 	mov	a,#0x02
                           5032 ;	Peephole 236.a	used r4 instead of ar4
   0F1B 2C                 5033 	add	a,r4
   0F1C FD                 5034 	mov	r5,a
                           5035 ;	genIpush
   0F1D C0 03              5036 	push	ar3
   0F1F C0 04              5037 	push	ar4
   0F21 C0 05              5038 	push	ar5
   0F23 C0 07              5039 	push	ar7
   0F25 C0 02              5040 	push	ar2
                           5041 ;	genIpush
   0F27 C0 05              5042 	push	ar5
                           5043 ;	genCall
   0F29 75 82 00           5044 	mov	dpl,#0x00
   0F2C 12s01rFE           5045 	lcall	_write_byte
   0F2F 15 81              5046 	dec	sp
   0F31 15 81              5047 	dec	sp
   0F33 D0 07              5048 	pop	ar7
   0F35 D0 05              5049 	pop	ar5
   0F37 D0 04              5050 	pop	ar4
   0F39 D0 03              5051 	pop	ar3
                           5052 ;	S:/ELEKTR~1/EIB/C/fn_in8/fb_app_in8.c:235: write_byte(0x00,3+objno*5,delay_target>>8);
                           5053 ;	genGetByte
   0F3B E5*00              5054 	mov	a,_bp
   0F3D 24 07              5055 	add	a,#0x07
                           5056 ;	Peephole 185	changed order of increment (acc incremented also!)
   0F3F 04                 5057 	inc	a
   0F40 F8                 5058 	mov	r0,a
   0F41 86 02              5059 	mov	ar2,@r0
                           5060 ;	genPlus
                           5061 ;     genPlusIncr
   0F43 74 03              5062 	mov	a,#0x03
                           5063 ;	Peephole 236.a	used r4 instead of ar4
   0F45 2C                 5064 	add	a,r4
   0F46 FD                 5065 	mov	r5,a
                           5066 ;	genIpush
   0F47 C0 03              5067 	push	ar3
   0F49 C0 04              5068 	push	ar4
   0F4B C0 05              5069 	push	ar5
   0F4D C0 07              5070 	push	ar7
   0F4F C0 02              5071 	push	ar2
                           5072 ;	genIpush
   0F51 C0 05              5073 	push	ar5
                           5074 ;	genCall
   0F53 75 82 00           5075 	mov	dpl,#0x00
   0F56 12s01rFE           5076 	lcall	_write_byte
   0F59 15 81              5077 	dec	sp
   0F5B 15 81              5078 	dec	sp
   0F5D D0 07              5079 	pop	ar7
   0F5F D0 05              5080 	pop	ar5
   0F61 D0 04              5081 	pop	ar4
   0F63 D0 03              5082 	pop	ar3
                           5083 ;	S:/ELEKTR~1/EIB/C/fn_in8/fb_app_in8.c:236: write_byte(0x00,4+objno*5,delay_target);
                           5084 ;	genCast
   0F65 E5*00              5085 	mov	a,_bp
   0F67 24 07              5086 	add	a,#0x07
   0F69 F8                 5087 	mov	r0,a
   0F6A 86 02              5088 	mov	ar2,@r0
                           5089 ;	genPlus
                           5090 ;     genPlusIncr
   0F6C EC                 5091 	mov	a,r4
   0F6D 24 04              5092 	add	a,#0x04
   0F6F FC                 5093 	mov	r4,a
                           5094 ;	genIpush
   0F70 C0 03              5095 	push	ar3
   0F72 C0 05              5096 	push	ar5
   0F74 C0 07              5097 	push	ar7
   0F76 C0 02              5098 	push	ar2
                           5099 ;	genIpush
   0F78 C0 04              5100 	push	ar4
                           5101 ;	genCall
   0F7A 75 82 00           5102 	mov	dpl,#0x00
   0F7D 12s01rFE           5103 	lcall	_write_byte
   0F80 15 81              5104 	dec	sp
   0F82 15 81              5105 	dec	sp
   0F84 D0 07              5106 	pop	ar7
   0F86 D0 05              5107 	pop	ar5
   0F88 D0 03              5108 	pop	ar3
                           5109 ;	S:/ELEKTR~1/EIB/C/fn_in8/fb_app_in8.c:237: stop_writecycle();
                           5110 ;	genCall
   0F8A C0 03              5111 	push	ar3
   0F8C C0 05              5112 	push	ar5
   0F8E C0 07              5113 	push	ar7
   0F90 12s01rFA           5114 	lcall	_stop_writecycle
   0F93 D0 07              5115 	pop	ar7
   0F95 D0 05              5116 	pop	ar5
   0F97 D0 03              5117 	pop	ar3
                           5118 ;	S:/ELEKTR~1/EIB/C/fn_in8/fb_app_in8.c:156: for(n=0;n<assno;n++)				// Schleife über alle Einträge in der Ass-Table, denn es könnten mehrere Objekte (Pins) der gleichen Gruppenadresse zugeordnet sein
                           5119 ;	genIpop
   0F99 D0 05              5120 	pop	ar5
                           5121 ;	S:/ELEKTR~1/EIB/C/fn_in8/fb_app_in8.c:237: stop_writecycle();
   0F9B                    5122 00123$:
                           5123 ;	S:/ELEKTR~1/EIB/C/fn_in8/fb_app_in8.c:239: TH0=0;					// Port-Ausgabe
                           5124 ;	genAssign
   0F9B 75 8C 00           5125 	mov	_TH0,#0x00
                           5126 ;	S:/ELEKTR~1/EIB/C/fn_in8/fb_app_in8.c:240: P1_2=1;
                           5127 ;	genAssign
   0F9E D2 92              5128 	setb	_P1_2
                           5129 ;	S:/ELEKTR~1/EIB/C/fn_in8/fb_app_in8.c:241: P0=portbuffer;
                           5130 ;	genAssign
   0FA0 85*1F 80           5131 	mov	_P0,_portbuffer
                           5132 ;	S:/ELEKTR~1/EIB/C/fn_in8/fb_app_in8.c:242: start_writecycle();	
                           5133 ;	genCall
   0FA3 C0 03              5134 	push	ar3
   0FA5 C0 05              5135 	push	ar5
   0FA7 C0 07              5136 	push	ar7
   0FA9 12s01rF6           5137 	lcall	_start_writecycle
   0FAC D0 07              5138 	pop	ar7
   0FAE D0 05              5139 	pop	ar5
   0FB0 D0 03              5140 	pop	ar3
                           5141 ;	S:/ELEKTR~1/EIB/C/fn_in8/fb_app_in8.c:243: write_byte(0x00,0x29,portbuffer);
                           5142 ;	genIpush
   0FB2 C0 03              5143 	push	ar3
   0FB4 C0 05              5144 	push	ar5
   0FB6 C0 07              5145 	push	ar7
   0FB8 C0*1F              5146 	push	_portbuffer
                           5147 ;	genIpush
   0FBA 74 29              5148 	mov	a,#0x29
   0FBC C0 E0              5149 	push	acc
                           5150 ;	genCall
   0FBE 75 82 00           5151 	mov	dpl,#0x00
   0FC1 12s01rFE           5152 	lcall	_write_byte
   0FC4 15 81              5153 	dec	sp
   0FC6 15 81              5154 	dec	sp
   0FC8 D0 07              5155 	pop	ar7
   0FCA D0 05              5156 	pop	ar5
   0FCC D0 03              5157 	pop	ar3
                           5158 ;	S:/ELEKTR~1/EIB/C/fn_in8/fb_app_in8.c:244: stop_writecycle();
                           5159 ;	genCall
   0FCE C0 03              5160 	push	ar3
   0FD0 C0 05              5161 	push	ar5
   0FD2 C0 07              5162 	push	ar7
   0FD4 12s01rFA           5163 	lcall	_stop_writecycle
   0FD7 D0 07              5164 	pop	ar7
   0FD9 D0 05              5165 	pop	ar5
   0FDB D0 03              5166 	pop	ar3
                           5167 ;	S:/ELEKTR~1/EIB/C/fn_in8/fb_app_in8.c:245: TR1=0;					
                           5168 ;	genAssign
   0FDD C2 8E              5169 	clr	_TCON_6
                           5170 ;	S:/ELEKTR~1/EIB/C/fn_in8/fb_app_in8.c:246: TF1=0;
                           5171 ;	genAssign
   0FDF C2 8F              5172 	clr	_TCON_7
                           5173 ;	S:/ELEKTR~1/EIB/C/fn_in8/fb_app_in8.c:247: TH1=0xA0;				// Relais zunächst mit vollem Strom einschalten...
                           5174 ;	genAssign
   0FE1 75 8D A0           5175 	mov	_TH1,#0xA0
                           5176 ;	S:/ELEKTR~1/EIB/C/fn_in8/fb_app_in8.c:248: TL1=0x00;				
                           5177 ;	genAssign
   0FE4 75 8B 00           5178 	mov	_TL1,#0x00
                           5179 ;	S:/ELEKTR~1/EIB/C/fn_in8/fb_app_in8.c:249: TR1=1;
                           5180 ;	genAssign
   0FE7 D2 8E              5181 	setb	_TCON_6
                           5182 ;	S:/ELEKTR~1/EIB/C/fn_in8/fb_app_in8.c:250: while (!TF1);
   0FE9                    5183 00124$:
                           5184 ;	genIfx
                           5185 ;	genIfxJump
                           5186 ;	Peephole 108.d	removed ljmp by inverse jump logic
   0FE9 30 8F FD           5187 	jnb	_TCON_7,00124$
                           5188 ;	Peephole 300	removed redundant label 00219$
                           5189 ;	S:/ELEKTR~1/EIB/C/fn_in8/fb_app_in8.c:251: TR1=0;
                           5190 ;	genAssign
   0FEC C2 8E              5191 	clr	_TCON_6
                           5192 ;	S:/ELEKTR~1/EIB/C/fn_in8/fb_app_in8.c:252: TH0=DUTY;				// ...danach mit PWM halten (min5% von I nominal)
                           5193 ;	genAssign
   0FEE 75 8C C0           5194 	mov	_TH0,#0xC0
                           5195 ;	S:/ELEKTR~1/EIB/C/fn_in8/fb_app_in8.c:254: objno+=12;				// Rückmeldeobjekt verarbeiten
                           5196 ;	genPlus
                           5197 ;     genPlusIncr
   0FF1 74 0C              5198 	mov	a,#0x0C
                           5199 ;	Peephole 236.a	used r7 instead of ar7
   0FF3 2F                 5200 	add	a,r7
                           5201 ;	S:/ELEKTR~1/EIB/C/fn_in8/fb_app_in8.c:255: objflags=read_objflags(objno);
                           5202 ;	genCall
   0FF4 FF                 5203 	mov	r7,a
                           5204 ;	Peephole 244.c	loading dpl from a instead of r7
   0FF5 F5 82              5205 	mov	dpl,a
   0FF7 C0 03              5206 	push	ar3
   0FF9 C0 05              5207 	push	ar5
   0FFB C0 07              5208 	push	ar7
   0FFD 12s06rCA           5209 	lcall	_read_objflags
   1000 AA 82              5210 	mov	r2,dpl
   1002 D0 07              5211 	pop	ar7
   1004 D0 05              5212 	pop	ar5
   1006 D0 03              5213 	pop	ar3
                           5214 ;	genAssign
   1008 A8*00              5215 	mov	r0,_bp
   100A 08                 5216 	inc	r0
   100B 08                 5217 	inc	r0
   100C A6 02              5218 	mov	@r0,ar2
                           5219 ;	S:/ELEKTR~1/EIB/C/fn_in8/fb_app_in8.c:256: if ((objflags & 0x04) == 0x04)
                           5220 ;	genAnd
   100E A8*00              5221 	mov	r0,_bp
   1010 08                 5222 	inc	r0
   1011 08                 5223 	inc	r0
   1012 74 04              5224 	mov	a,#0x04
   1014 56                 5225 	anl	a,@r0
   1015 FA                 5226 	mov	r2,a
                           5227 ;	genCmpEq
                           5228 ;	gencjneshort
                           5229 ;	Peephole 112.b	changed ljmp to sjmp
                           5230 ;	Peephole 198.b	optimized misc jump sequence
   1016 BA 04 39           5231 	cjne	r2,#0x04,00134$
                           5232 ;	Peephole 200.b	removed redundant sjmp
                           5233 ;	Peephole 300	removed redundant label 00220$
                           5234 ;	Peephole 300	removed redundant label 00221$
                           5235 ;	S:/ELEKTR~1/EIB/C/fn_in8/fb_app_in8.c:258: ga=find_ga(objno);
                           5236 ;	genCall
   1019 8F 82              5237 	mov	dpl,r7
   101B C0 03              5238 	push	ar3
   101D C0 05              5239 	push	ar5
   101F 12s06rF8           5240 	lcall	_find_ga
   1022 AA 82              5241 	mov	r2,dpl
   1024 AC 83              5242 	mov	r4,dph
   1026 D0 05              5243 	pop	ar5
   1028 D0 03              5244 	pop	ar3
                           5245 ;	genAssign
                           5246 ;	S:/ELEKTR~1/EIB/C/fn_in8/fb_app_in8.c:259: if (ga!=0)
                           5247 ;	genCmpEq
                           5248 ;	gencjneshort
   102A BA 00 05           5249 	cjne	r2,#0x00,00222$
   102D BC 00 02           5250 	cjne	r4,#0x00,00222$
                           5251 ;	Peephole 112.b	changed ljmp to sjmp
   1030 80 20              5252 	sjmp	00134$
   1032                    5253 00222$:
                           5254 ;	S:/ELEKTR~1/EIB/C/fn_in8/fb_app_in8.c:261: telegramm[0]=0xBC;
                           5255 ;	genPointerSet
                           5256 ;	genNearPointerSet
                           5257 ;	genDataPointerSet
   1032 75*00 BC           5258 	mov	_telegramm,#0xBC
                           5259 ;	S:/ELEKTR~1/EIB/C/fn_in8/fb_app_in8.c:262: telegramm[1]=pah;
                           5260 ;	genPointerSet
                           5261 ;	genNearPointerSet
                           5262 ;	genDataPointerSet
   1035 85*1A*01           5263 	mov	(_telegramm + 0x0001),_pah
                           5264 ;	S:/ELEKTR~1/EIB/C/fn_in8/fb_app_in8.c:263: telegramm[2]=pal;
                           5265 ;	genPointerSet
                           5266 ;	genNearPointerSet
                           5267 ;	genDataPointerSet
   1038 85*19*02           5268 	mov	(_telegramm + 0x0002),_pal
                           5269 ;	S:/ELEKTR~1/EIB/C/fn_in8/fb_app_in8.c:264: telegramm[3]=(ga>>8);
                           5270 ;	genGetByte
   103B 8C 06              5271 	mov	ar6,r4
                           5272 ;	genPointerSet
                           5273 ;	genNearPointerSet
                           5274 ;	genDataPointerSet
   103D 8E*03              5275 	mov	(_telegramm + 0x0003),r6
                           5276 ;	S:/ELEKTR~1/EIB/C/fn_in8/fb_app_in8.c:265: telegramm[4]=ga;
                           5277 ;	genCast
                           5278 ;	genPointerSet
                           5279 ;	genNearPointerSet
                           5280 ;	genDataPointerSet
   103F 8A*04              5281 	mov	(_telegramm + 0x0004),r2
                           5282 ;	S:/ELEKTR~1/EIB/C/fn_in8/fb_app_in8.c:266: telegramm[5]=0xE1;
                           5283 ;	genPointerSet
                           5284 ;	genNearPointerSet
                           5285 ;	genDataPointerSet
   1041 75*05 E1           5286 	mov	(_telegramm + 0x0005),#0xE1
                           5287 ;	S:/ELEKTR~1/EIB/C/fn_in8/fb_app_in8.c:267: telegramm[6]=0x00;
                           5288 ;	genPointerSet
                           5289 ;	genNearPointerSet
                           5290 ;	genDataPointerSet
   1044 75*06 00           5291 	mov	(_telegramm + 0x0006),#0x00
                           5292 ;	S:/ELEKTR~1/EIB/C/fn_in8/fb_app_in8.c:268: send_telegramm();
                           5293 ;	genCall
   1047 C0 03              5294 	push	ar3
   1049 C0 05              5295 	push	ar5
   104B 12s04r63           5296 	lcall	_send_telegramm
   104E D0 05              5297 	pop	ar5
   1050 D0 03              5298 	pop	ar3
   1052                    5299 00134$:
                           5300 ;	S:/ELEKTR~1/EIB/C/fn_in8/fb_app_in8.c:273: if(telegramm[7]==0x00 && (objflags&0x08)==0x08)	// Wert lesen, nur wenn read enable gesetzt (Bit3)
                           5301 ;	genPointerGet
                           5302 ;	genNearPointerGet
                           5303 ;	genDataPointerGet
   1052 E5*07              5304 	mov	a,(_telegramm + 0x0007)
                           5305 ;	genIfx
                           5306 ;	genIfxJump
                           5307 ;	Peephole 108.b	removed ljmp by inverse jump logic
   1054 70 35              5308 	jnz	00149$
                           5309 ;	Peephole 300	removed redundant label 00223$
                           5310 ;	genAnd
   1056 A8*00              5311 	mov	r0,_bp
   1058 08                 5312 	inc	r0
   1059 08                 5313 	inc	r0
   105A 74 08              5314 	mov	a,#0x08
   105C 56                 5315 	anl	a,@r0
   105D FA                 5316 	mov	r2,a
                           5317 ;	genCmpEq
                           5318 ;	gencjneshort
                           5319 ;	Peephole 112.b	changed ljmp to sjmp
                           5320 ;	Peephole 198.b	optimized misc jump sequence
   105E BA 08 2A           5321 	cjne	r2,#0x08,00149$
                           5322 ;	Peephole 200.b	removed redundant sjmp
                           5323 ;	Peephole 300	removed redundant label 00224$
                           5324 ;	Peephole 300	removed redundant label 00225$
                           5325 ;	S:/ELEKTR~1/EIB/C/fn_in8/fb_app_in8.c:275: telegramm[0]=0xBC;
                           5326 ;	genPointerSet
                           5327 ;	genNearPointerSet
                           5328 ;	genDataPointerSet
   1061 75*00 BC           5329 	mov	_telegramm,#0xBC
                           5330 ;	S:/ELEKTR~1/EIB/C/fn_in8/fb_app_in8.c:276: telegramm[1]=pah;			// Source Adresse
                           5331 ;	genPointerSet
                           5332 ;	genNearPointerSet
                           5333 ;	genDataPointerSet
   1064 85*1A*01           5334 	mov	(_telegramm + 0x0001),_pah
                           5335 ;	S:/ELEKTR~1/EIB/C/fn_in8/fb_app_in8.c:277: telegramm[2]=pal;
                           5336 ;	genPointerSet
                           5337 ;	genNearPointerSet
                           5338 ;	genDataPointerSet
   1067 85*19*02           5339 	mov	(_telegramm + 0x0002),_pal
                           5340 ;	S:/ELEKTR~1/EIB/C/fn_in8/fb_app_in8.c:278: telegramm[5]=0xE1;		// DRL
                           5341 ;	genPointerSet
                           5342 ;	genNearPointerSet
                           5343 ;	genDataPointerSet
   106A 75*05 E1           5344 	mov	(_telegramm + 0x0005),#0xE1
                           5345 ;	S:/ELEKTR~1/EIB/C/fn_in8/fb_app_in8.c:279: telegramm[6]=0x00;
                           5346 ;	genPointerSet
                           5347 ;	genNearPointerSet
                           5348 ;	genDataPointerSet
   106D 75*06 00           5349 	mov	(_telegramm + 0x0006),#0x00
                           5350 ;	S:/ELEKTR~1/EIB/C/fn_in8/fb_app_in8.c:280: if((port_pattern&portbuffer)>0) telegramm[7]=0x41;	// An
                           5351 ;	genAnd
   1070 A8*00              5352 	mov	r0,_bp
   1072 08                 5353 	inc	r0
   1073 E5*1F              5354 	mov	a,_portbuffer
   1075 56                 5355 	anl	a,@r0
                           5356 ;	genIfx
                           5357 ;	genIfxJump
                           5358 ;	Peephole 108.c	removed ljmp by inverse jump logic
   1076 60 05              5359 	jz	00136$
                           5360 ;	Peephole 300	removed redundant label 00226$
                           5361 ;	genPointerSet
                           5362 ;	genNearPointerSet
                           5363 ;	genDataPointerSet
   1078 75*07 41           5364 	mov	(_telegramm + 0x0007),#0x41
                           5365 ;	Peephole 112.b	changed ljmp to sjmp
   107B 80 03              5366 	sjmp	00137$
   107D                    5367 00136$:
                           5368 ;	S:/ELEKTR~1/EIB/C/fn_in8/fb_app_in8.c:281: else telegramm[7]=0x40;					// Aus
                           5369 ;	genPointerSet
                           5370 ;	genNearPointerSet
                           5371 ;	genDataPointerSet
   107D 75*07 40           5372 	mov	(_telegramm + 0x0007),#0x40
   1080                    5373 00137$:
                           5374 ;	S:/ELEKTR~1/EIB/C/fn_in8/fb_app_in8.c:282: send_telegramm();
                           5375 ;	genCall
   1080 C0 03              5376 	push	ar3
   1082 C0 05              5377 	push	ar5
   1084 12s04r63           5378 	lcall	_send_telegramm
   1087 D0 05              5379 	pop	ar5
   1089 D0 03              5380 	pop	ar3
   108B                    5381 00149$:
                           5382 ;	S:/ELEKTR~1/EIB/C/fn_in8/fb_app_in8.c:156: for(n=0;n<assno;n++)				// Schleife über alle Einträge in der Ass-Table, denn es könnten mehrere Objekte (Pins) der gleichen Gruppenadresse zugeordnet sein
                           5383 ;	genPlus
   108B E5*00              5384 	mov	a,_bp
   108D 24 05              5385 	add	a,#0x05
   108F F8                 5386 	mov	r0,a
                           5387 ;     genPlusIncr
   1090 06                 5388 	inc	@r0
   1091 02s0BrA6           5389 	ljmp	00147$
   1094                    5390 00151$:
   1094 85*00 81           5391 	mov	sp,_bp
   1097 D0*00              5392 	pop	_bp
   1099 22                 5393 	ret
                           5394 ;------------------------------------------------------------
                           5395 ;Allocation info for local variables in function 'delay_timer'
                           5396 ;------------------------------------------------------------
                           5397 ;n                         Allocated to stack - offset 1
                           5398 ;b                         Allocated to registers r4 
                           5399 ;port_pattern              Allocated to registers r2 
                           5400 ;delay_zeit                Allocated to registers r5 
                           5401 ;delay_onoff               Allocated to registers r7 
                           5402 ;delay_base                Allocated to registers r3 
                           5403 ;delval                    Allocated to stack - offset 2
                           5404 ;delay_target              Allocated to stack - offset 6
                           5405 ;sloc0                     Allocated to stack - offset 10
                           5406 ;------------------------------------------------------------
                           5407 ;	S:/ELEKTR~1/EIB/C/fn_in8/fb_app_in8.c:296: void delay_timer(void)	// zählt alle 130ms die Variable Timer hoch und prüft Queue
                           5408 ;	-----------------------------------------
                           5409 ;	 function delay_timer
                           5410 ;	-----------------------------------------
   109A                    5411 _delay_timer:
   109A C0*00              5412 	push	_bp
                           5413 ;	peephole 177.h	optimized mov sequence
   109C E5 81              5414 	mov	a,sp
   109E F5*00              5415 	mov	_bp,a
   10A0 24 0D              5416 	add	a,#0x0d
   10A2 F5 81              5417 	mov	sp,a
                           5418 ;	S:/ELEKTR~1/EIB/C/fn_in8/fb_app_in8.c:301: RTCCON=0x60;		// RTC anhalten und Flag löschen
                           5419 ;	genAssign
   10A4 75 D1 60           5420 	mov	_RTCCON,#0x60
                           5421 ;	S:/ELEKTR~1/EIB/C/fn_in8/fb_app_in8.c:302: RTCH=0x1D;		// Real Time Clock
                           5422 ;	genAssign
   10A7 75 D2 1D           5423 	mov	_RTCH,#0x1D
                           5424 ;	S:/ELEKTR~1/EIB/C/fn_in8/fb_app_in8.c:303: RTCL=0x40;
                           5425 ;	genAssign
   10AA 75 D3 40           5426 	mov	_RTCL,#0x40
                           5427 ;	S:/ELEKTR~1/EIB/C/fn_in8/fb_app_in8.c:305: timer++;
                           5428 ;	genPlus
                           5429 ;     genPlusIncr
   10AD 05*23              5430 	inc	_timer
   10AF E4                 5431 	clr	a
   10B0 B5*23 0C           5432 	cjne	a,_timer,00145$
   10B3 05*24              5433 	inc	(_timer + 1)
   10B5 B5*24 07           5434 	cjne	a,(_timer + 1),00145$
   10B8 05*25              5435 	inc	(_timer + 2)
   10BA B5*25 02           5436 	cjne	a,(_timer + 2),00145$
   10BD 05*26              5437 	inc	(_timer + 3)
   10BF                    5438 00145$:
                           5439 ;	S:/ELEKTR~1/EIB/C/fn_in8/fb_app_in8.c:306: for(n=0;n<=7;n++)
                           5440 ;	genAssign
   10BF A8*00              5441 	mov	r0,_bp
   10C1 08                 5442 	inc	r0
   10C2 76 00              5443 	mov	@r0,#0x00
   10C4                    5444 00125$:
                           5445 ;	genCmpGt
   10C4 A8*00              5446 	mov	r0,_bp
   10C6 08                 5447 	inc	r0
                           5448 ;	genCmp
                           5449 ;	genIfxJump
                           5450 ;	Peephole 132.b	optimized genCmpGt by inverse logic (acc differs)
   10C7 E6                 5451 	mov	a,@r0
   10C8 24 F8              5452 	add	a,#0xff - 0x07
   10CA 50 03              5453 	jnc	00146$
   10CC 02s14rCC           5454 	ljmp	00128$
   10CF                    5455 00146$:
                           5456 ;	S:/ELEKTR~1/EIB/C/fn_in8/fb_app_in8.c:308: b=read_byte(0x00,n*5);
                           5457 ;	genMult
   10CF A8*00              5458 	mov	r0,_bp
   10D1 08                 5459 	inc	r0
                           5460 ;	genMultOneByte
   10D2 E6                 5461 	mov	a,@r0
   10D3 75 F0 05           5462 	mov	b,#0x05
   10D6 A4                 5463 	mul	ab
   10D7 FB                 5464 	mov	r3,a
                           5465 ;	genIpush
   10D8 C0 03              5466 	push	ar3
   10DA C0 03              5467 	push	ar3
                           5468 ;	genCall
   10DC 75 82 00           5469 	mov	dpl,#0x00
   10DF 12s02r55           5470 	lcall	_read_byte
   10E2 AC 82              5471 	mov	r4,dpl
   10E4 15 81              5472 	dec	sp
   10E6 D0 03              5473 	pop	ar3
                           5474 ;	genAssign
                           5475 ;	S:/ELEKTR~1/EIB/C/fn_in8/fb_app_in8.c:309: if(b!=0x00)							// 0x00 = queue Eintrag ist leer
                           5476 ;	genCmpEq
                           5477 ;	gencjneshort
   10E8 BC 00 03           5478 	cjne	r4,#0x00,00147$
   10EB 02s14rC5           5479 	ljmp	00127$
   10EE                    5480 00147$:
                           5481 ;	S:/ELEKTR~1/EIB/C/fn_in8/fb_app_in8.c:311: delval=read_byte(0x00,n*5+1);
                           5482 ;	genIpush
   10EE C0 04              5483 	push	ar4
                           5484 ;	genPlus
                           5485 ;     genPlusIncr
   10F0 74 01              5486 	mov	a,#0x01
                           5487 ;	Peephole 236.a	used r3 instead of ar3
   10F2 2B                 5488 	add	a,r3
   10F3 FD                 5489 	mov	r5,a
                           5490 ;	genIpush
   10F4 C0 03              5491 	push	ar3
   10F6 C0 04              5492 	push	ar4
   10F8 C0 05              5493 	push	ar5
                           5494 ;	genCall
   10FA 75 82 00           5495 	mov	dpl,#0x00
   10FD 12s02r55           5496 	lcall	_read_byte
   1100 AD 82              5497 	mov	r5,dpl
   1102 15 81              5498 	dec	sp
   1104 D0 04              5499 	pop	ar4
   1106 D0 03              5500 	pop	ar3
                           5501 ;	genCast
   1108 A8*00              5502 	mov	r0,_bp
   110A 08                 5503 	inc	r0
   110B 08                 5504 	inc	r0
   110C A6 05              5505 	mov	@r0,ar5
   110E 08                 5506 	inc	r0
   110F 76 00              5507 	mov	@r0,#0x00
   1111 08                 5508 	inc	r0
   1112 76 00              5509 	mov	@r0,#0x00
   1114 08                 5510 	inc	r0
   1115 76 00              5511 	mov	@r0,#0x00
                           5512 ;	S:/ELEKTR~1/EIB/C/fn_in8/fb_app_in8.c:312: delval=(delval<<8)+read_byte(0x00,n*5+2);
                           5513 ;	genLeftShift
                           5514 ;	genLeftShiftLiteral
   1117 A8*00              5515 	mov	r0,_bp
   1119 08                 5516 	inc	r0
   111A 08                 5517 	inc	r0
   111B E5*00              5518 	mov	a,_bp
   111D 24 0A              5519 	add	a,#0x0a
   111F F9                 5520 	mov	r1,a
                           5521 ;	genlshFour
   1120 08                 5522 	inc	r0
   1121 08                 5523 	inc	r0
   1122 E6                 5524 	mov	a,@r0
   1123 09                 5525 	inc	r1
   1124 09                 5526 	inc	r1
   1125 09                 5527 	inc	r1
   1126 F7                 5528 	mov	@r1,a
   1127 18                 5529 	dec	r0
   1128 E6                 5530 	mov	a,@r0
   1129 19                 5531 	dec	r1
   112A F7                 5532 	mov	@r1,a
   112B 18                 5533 	dec	r0
   112C E6                 5534 	mov	a,@r0
   112D 19                 5535 	dec	r1
   112E F7                 5536 	mov	@r1,a
   112F 19                 5537 	dec	r1
   1130 77 00              5538 	mov	@r1,#0x00
                           5539 ;	genPlus
                           5540 ;     genPlusIncr
   1132 74 02              5541 	mov	a,#0x02
                           5542 ;	Peephole 236.a	used r3 instead of ar3
   1134 2B                 5543 	add	a,r3
   1135 FA                 5544 	mov	r2,a
                           5545 ;	genIpush
   1136 C0 03              5546 	push	ar3
   1138 C0 04              5547 	push	ar4
   113A C0 02              5548 	push	ar2
                           5549 ;	genCall
   113C 75 82 00           5550 	mov	dpl,#0x00
   113F 12s02r55           5551 	lcall	_read_byte
   1142 AA 82              5552 	mov	r2,dpl
   1144 15 81              5553 	dec	sp
   1146 D0 04              5554 	pop	ar4
   1148 D0 03              5555 	pop	ar3
                           5556 ;	genCast
                           5557 ;	genCast
                           5558 ;	peephole 177.g	optimized mov sequence
                           5559 ;	Peephole 181	changed mov to clr
   114A E4                 5560 	clr	a
   114B FC                 5561 	mov	r4,a
   114C 33                 5562 	rlc	a
   114D 95 E0              5563 	subb	a,acc
   114F FD                 5564 	mov	r5,a
   1150 FE                 5565 	mov	r6,a
                           5566 ;	genPlus
   1151 E5*00              5567 	mov	a,_bp
   1153 24 0A              5568 	add	a,#0x0a
   1155 F8                 5569 	mov	r0,a
                           5570 ;	Peephole 236.g	used r2 instead of ar2
   1156 EA                 5571 	mov	a,r2
   1157 26                 5572 	add	a,@r0
   1158 FA                 5573 	mov	r2,a
                           5574 ;	Peephole 236.g	used r4 instead of ar4
   1159 EC                 5575 	mov	a,r4
   115A 08                 5576 	inc	r0
   115B 36                 5577 	addc	a,@r0
   115C FC                 5578 	mov	r4,a
                           5579 ;	Peephole 236.g	used r5 instead of ar5
   115D ED                 5580 	mov	a,r5
   115E 08                 5581 	inc	r0
   115F 36                 5582 	addc	a,@r0
   1160 FD                 5583 	mov	r5,a
                           5584 ;	Peephole 236.g	used r6 instead of ar6
   1161 EE                 5585 	mov	a,r6
   1162 08                 5586 	inc	r0
   1163 36                 5587 	addc	a,@r0
   1164 FE                 5588 	mov	r6,a
                           5589 ;	genAssign
   1165 A8*00              5590 	mov	r0,_bp
   1167 08                 5591 	inc	r0
   1168 08                 5592 	inc	r0
   1169 A6 02              5593 	mov	@r0,ar2
   116B 08                 5594 	inc	r0
   116C A6 04              5595 	mov	@r0,ar4
   116E 08                 5596 	inc	r0
   116F A6 05              5597 	mov	@r0,ar5
   1171 08                 5598 	inc	r0
   1172 A6 06              5599 	mov	@r0,ar6
                           5600 ;	S:/ELEKTR~1/EIB/C/fn_in8/fb_app_in8.c:313: delval=(delval<<8)+read_byte(0x00,n*5+3);
                           5601 ;	genLeftShift
                           5602 ;	genLeftShiftLiteral
   1174 A8*00              5603 	mov	r0,_bp
   1176 08                 5604 	inc	r0
   1177 08                 5605 	inc	r0
   1178 E5*00              5606 	mov	a,_bp
   117A 24 0A              5607 	add	a,#0x0a
   117C F9                 5608 	mov	r1,a
                           5609 ;	genlshFour
   117D 08                 5610 	inc	r0
   117E 08                 5611 	inc	r0
   117F E6                 5612 	mov	a,@r0
   1180 09                 5613 	inc	r1
   1181 09                 5614 	inc	r1
   1182 09                 5615 	inc	r1
   1183 F7                 5616 	mov	@r1,a
   1184 18                 5617 	dec	r0
   1185 E6                 5618 	mov	a,@r0
   1186 19                 5619 	dec	r1
   1187 F7                 5620 	mov	@r1,a
   1188 18                 5621 	dec	r0
   1189 E6                 5622 	mov	a,@r0
   118A 19                 5623 	dec	r1
   118B F7                 5624 	mov	@r1,a
   118C 19                 5625 	dec	r1
   118D 77 00              5626 	mov	@r1,#0x00
                           5627 ;	genPlus
                           5628 ;     genPlusIncr
   118F 74 03              5629 	mov	a,#0x03
                           5630 ;	Peephole 236.a	used r3 instead of ar3
   1191 2B                 5631 	add	a,r3
   1192 FF                 5632 	mov	r7,a
                           5633 ;	genIpush
   1193 C0 03              5634 	push	ar3
   1195 C0 04              5635 	push	ar4
   1197 C0 07              5636 	push	ar7
                           5637 ;	genCall
   1199 75 82 00           5638 	mov	dpl,#0x00
   119C 12s02r55           5639 	lcall	_read_byte
   119F AF 82              5640 	mov	r7,dpl
   11A1 15 81              5641 	dec	sp
   11A3 D0 04              5642 	pop	ar4
   11A5 D0 03              5643 	pop	ar3
                           5644 ;	genCast
                           5645 ;	genCast
                           5646 ;	peephole 177.g	optimized mov sequence
                           5647 ;	Peephole 181	changed mov to clr
   11A7 E4                 5648 	clr	a
   11A8 FA                 5649 	mov	r2,a
   11A9 33                 5650 	rlc	a
   11AA 95 E0              5651 	subb	a,acc
   11AC FC                 5652 	mov	r4,a
   11AD FD                 5653 	mov	r5,a
                           5654 ;	genPlus
   11AE E5*00              5655 	mov	a,_bp
   11B0 24 0A              5656 	add	a,#0x0a
   11B2 F8                 5657 	mov	r0,a
                           5658 ;	Peephole 236.g	used r7 instead of ar7
   11B3 EF                 5659 	mov	a,r7
   11B4 26                 5660 	add	a,@r0
   11B5 FF                 5661 	mov	r7,a
                           5662 ;	Peephole 236.g	used r2 instead of ar2
   11B6 EA                 5663 	mov	a,r2
   11B7 08                 5664 	inc	r0
   11B8 36                 5665 	addc	a,@r0
   11B9 FA                 5666 	mov	r2,a
                           5667 ;	Peephole 236.g	used r4 instead of ar4
   11BA EC                 5668 	mov	a,r4
   11BB 08                 5669 	inc	r0
   11BC 36                 5670 	addc	a,@r0
   11BD FC                 5671 	mov	r4,a
                           5672 ;	Peephole 236.g	used r5 instead of ar5
   11BE ED                 5673 	mov	a,r5
   11BF 08                 5674 	inc	r0
   11C0 36                 5675 	addc	a,@r0
   11C1 FD                 5676 	mov	r5,a
                           5677 ;	genAssign
   11C2 A8*00              5678 	mov	r0,_bp
   11C4 08                 5679 	inc	r0
   11C5 08                 5680 	inc	r0
   11C6 A6 07              5681 	mov	@r0,ar7
   11C8 08                 5682 	inc	r0
   11C9 A6 02              5683 	mov	@r0,ar2
   11CB 08                 5684 	inc	r0
   11CC A6 04              5685 	mov	@r0,ar4
   11CE 08                 5686 	inc	r0
   11CF A6 05              5687 	mov	@r0,ar5
                           5688 ;	S:/ELEKTR~1/EIB/C/fn_in8/fb_app_in8.c:314: delval=(delval<<8)+read_byte(0x00,n*5+4);
                           5689 ;	genLeftShift
                           5690 ;	genLeftShiftLiteral
   11D1 A8*00              5691 	mov	r0,_bp
   11D3 08                 5692 	inc	r0
   11D4 08                 5693 	inc	r0
   11D5 E5*00              5694 	mov	a,_bp
   11D7 24 0A              5695 	add	a,#0x0a
   11D9 F9                 5696 	mov	r1,a
                           5697 ;	genlshFour
   11DA 08                 5698 	inc	r0
   11DB 08                 5699 	inc	r0
   11DC E6                 5700 	mov	a,@r0
   11DD 09                 5701 	inc	r1
   11DE 09                 5702 	inc	r1
   11DF 09                 5703 	inc	r1
   11E0 F7                 5704 	mov	@r1,a
   11E1 18                 5705 	dec	r0
   11E2 E6                 5706 	mov	a,@r0
   11E3 19                 5707 	dec	r1
   11E4 F7                 5708 	mov	@r1,a
   11E5 18                 5709 	dec	r0
   11E6 E6                 5710 	mov	a,@r0
   11E7 19                 5711 	dec	r1
   11E8 F7                 5712 	mov	@r1,a
   11E9 19                 5713 	dec	r1
   11EA 77 00              5714 	mov	@r1,#0x00
                           5715 ;	genPlus
                           5716 ;     genPlusIncr
   11EC EB                 5717 	mov	a,r3
   11ED 24 04              5718 	add	a,#0x04
   11EF FB                 5719 	mov	r3,a
                           5720 ;	genIpush
   11F0 C0 04              5721 	push	ar4
   11F2 C0 03              5722 	push	ar3
                           5723 ;	genCall
   11F4 75 82 00           5724 	mov	dpl,#0x00
   11F7 12s02r55           5725 	lcall	_read_byte
   11FA AB 82              5726 	mov	r3,dpl
   11FC 15 81              5727 	dec	sp
   11FE D0 04              5728 	pop	ar4
                           5729 ;	genCast
                           5730 ;	genCast
                           5731 ;	peephole 177.g	optimized mov sequence
                           5732 ;	Peephole 181	changed mov to clr
   1200 E4                 5733 	clr	a
   1201 FF                 5734 	mov	r7,a
   1202 33                 5735 	rlc	a
   1203 95 E0              5736 	subb	a,acc
   1205 FA                 5737 	mov	r2,a
   1206 FC                 5738 	mov	r4,a
                           5739 ;	genPlus
   1207 E5*00              5740 	mov	a,_bp
   1209 24 0A              5741 	add	a,#0x0a
   120B F8                 5742 	mov	r0,a
                           5743 ;	Peephole 236.g	used r3 instead of ar3
   120C EB                 5744 	mov	a,r3
   120D 26                 5745 	add	a,@r0
   120E FB                 5746 	mov	r3,a
                           5747 ;	Peephole 236.g	used r7 instead of ar7
   120F EF                 5748 	mov	a,r7
   1210 08                 5749 	inc	r0
   1211 36                 5750 	addc	a,@r0
   1212 FF                 5751 	mov	r7,a
                           5752 ;	Peephole 236.g	used r2 instead of ar2
   1213 EA                 5753 	mov	a,r2
   1214 08                 5754 	inc	r0
   1215 36                 5755 	addc	a,@r0
   1216 FA                 5756 	mov	r2,a
                           5757 ;	Peephole 236.g	used r4 instead of ar4
   1217 EC                 5758 	mov	a,r4
   1218 08                 5759 	inc	r0
   1219 36                 5760 	addc	a,@r0
   121A FC                 5761 	mov	r4,a
                           5762 ;	genAssign
   121B A8*00              5763 	mov	r0,_bp
   121D 08                 5764 	inc	r0
   121E 08                 5765 	inc	r0
   121F A6 03              5766 	mov	@r0,ar3
   1221 08                 5767 	inc	r0
   1222 A6 07              5768 	mov	@r0,ar7
   1224 08                 5769 	inc	r0
   1225 A6 02              5770 	mov	@r0,ar2
   1227 08                 5771 	inc	r0
   1228 A6 04              5772 	mov	@r0,ar4
                           5773 ;	S:/ELEKTR~1/EIB/C/fn_in8/fb_app_in8.c:315: if(delval==timer)
                           5774 ;	genCmpEq
   122A A8*00              5775 	mov	r0,_bp
   122C 08                 5776 	inc	r0
   122D 08                 5777 	inc	r0
                           5778 ;	gencjne
                           5779 ;	gencjneshort
   122E E6                 5780 	mov	a,@r0
   122F B5*23 13           5781 	cjne	a,_timer,00148$
   1232 08                 5782 	inc	r0
   1233 E6                 5783 	mov	a,@r0
   1234 B5*24 0E           5784 	cjne	a,(_timer + 1),00148$
   1237 08                 5785 	inc	r0
   1238 E6                 5786 	mov	a,@r0
   1239 B5*25 09           5787 	cjne	a,(_timer + 2),00148$
   123C 08                 5788 	inc	r0
   123D E6                 5789 	mov	a,@r0
   123E B5*26 04           5790 	cjne	a,(_timer + 3),00148$
   1241 74 01              5791 	mov	a,#0x01
   1243 80 01              5792 	sjmp	00149$
   1245                    5793 00148$:
   1245 E4                 5794 	clr	a
   1246                    5795 00149$:
                           5796 ;	genIpop
   1246 D0 04              5797 	pop	ar4
                           5798 ;	genIfx
                           5799 ;	genIfxJump
   1248 70 03              5800 	jnz	00150$
   124A 02s14rC5           5801 	ljmp	00127$
   124D                    5802 00150$:
                           5803 ;	S:/ELEKTR~1/EIB/C/fn_in8/fb_app_in8.c:317: port_pattern=0x01<<((b&0x0F));
                           5804 ;	genAnd
   124D 74 0F              5805 	mov	a,#0x0F
   124F 5C                 5806 	anl	a,r4
   1250 FA                 5807 	mov	r2,a
                           5808 ;	genLeftShift
   1251 8A F0              5809 	mov	b,r2
   1253 05 F0              5810 	inc	b
   1255 74 01              5811 	mov	a,#0x01
   1257 80 02              5812 	sjmp	00153$
   1259                    5813 00151$:
   1259 25 E0              5814 	add	a,acc
   125B                    5815 00153$:
   125B D5 F0 FB           5816 	djnz	b,00151$
   125E FA                 5817 	mov	r2,a
                           5818 ;	S:/ELEKTR~1/EIB/C/fn_in8/fb_app_in8.c:318: if((b&0xF0)==0x90)
                           5819 ;	genAnd
   125F 74 F0              5820 	mov	a,#0xF0
   1261 5C                 5821 	anl	a,r4
   1262 FB                 5822 	mov	r3,a
                           5823 ;	genCmpEq
                           5824 ;	gencjneshort
   1263 BB 90 02           5825 	cjne	r3,#0x90,00154$
   1266 80 03              5826 	sjmp	00155$
   1268                    5827 00154$:
   1268 02s14r44           5828 	ljmp	00116$
   126B                    5829 00155$:
                           5830 ;	S:/ELEKTR~1/EIB/C/fn_in8/fb_app_in8.c:320: if (((read_byte(0x01,RELMODE)>>(b&0x0F))&0x01)==0x00)
                           5831 ;	genIpush
   126B C0 02              5832 	push	ar2
   126D C0 04              5833 	push	ar4
   126F 74 F2              5834 	mov	a,#0xF2
   1271 C0 E0              5835 	push	acc
                           5836 ;	genCall
   1273 75 82 01           5837 	mov	dpl,#0x01
   1276 12s02r55           5838 	lcall	_read_byte
   1279 AB 82              5839 	mov	r3,dpl
   127B 15 81              5840 	dec	sp
   127D D0 04              5841 	pop	ar4
   127F D0 02              5842 	pop	ar2
                           5843 ;	genAnd
   1281 74 0F              5844 	mov	a,#0x0F
   1283 5C                 5845 	anl	a,r4
                           5846 ;	genRightShift
                           5847 ;	Peephole 185	changed order of increment (acc incremented also!)
   1284 04                 5848 	inc	a
   1285 F5 F0              5849 	mov	b,a
   1287 EB                 5850 	mov	a,r3
   1288 80 02              5851 	sjmp	00157$
   128A                    5852 00156$:
   128A C3                 5853 	clr	c
   128B 13                 5854 	rrc	a
   128C                    5855 00157$:
   128C D5 F0 FB           5856 	djnz	b,00156$
                           5857 ;	genAnd
                           5858 ;	genIfxJump
                           5859 ;	Peephole 108.e	removed ljmp by inverse jump logic
   128F 20 E0 05           5860 	jb	acc.0,00102$
                           5861 ;	Peephole 300	removed redundant label 00158$
                           5862 ;	S:/ELEKTR~1/EIB/C/fn_in8/fb_app_in8.c:322: portbuffer=portbuffer|port_pattern;		// Einschalten (Schliesserbetrieb)
                           5863 ;	genOr
   1292 EA                 5864 	mov	a,r2
   1293 42*1F              5865 	orl	_portbuffer,a
                           5866 ;	Peephole 112.b	changed ljmp to sjmp
   1295 80 05              5867 	sjmp	00103$
   1297                    5868 00102$:
                           5869 ;	S:/ELEKTR~1/EIB/C/fn_in8/fb_app_in8.c:326: portbuffer=portbuffer&~port_pattern;	// Einschalten (Öffnerbetrieb)
                           5870 ;	genCpl
   1297 EA                 5871 	mov	a,r2
   1298 F4                 5872 	cpl	a
                           5873 ;	genAnd
   1299 FB                 5874 	mov	r3,a
                           5875 ;	Peephole 105	removed redundant mov
   129A 52*1F              5876 	anl	_portbuffer,a
   129C                    5877 00103$:
                           5878 ;	S:/ELEKTR~1/EIB/C/fn_in8/fb_app_in8.c:328: start_writecycle();
                           5879 ;	genCall
   129C 12s01rF6           5880 	lcall	_start_writecycle
                           5881 ;	S:/ELEKTR~1/EIB/C/fn_in8/fb_app_in8.c:329: write_byte(0x00,n*5,0x00);
                           5882 ;	genMult
   129F A8*00              5883 	mov	r0,_bp
   12A1 08                 5884 	inc	r0
                           5885 ;	genMultOneByte
   12A2 E6                 5886 	mov	a,@r0
   12A3 75 F0 05           5887 	mov	b,#0x05
   12A6 A4                 5888 	mul	ab
   12A7 FA                 5889 	mov	r2,a
                           5890 ;	genIpush
   12A8 C0 02              5891 	push	ar2
                           5892 ;	Peephole 181	changed mov to clr
   12AA E4                 5893 	clr	a
   12AB C0 E0              5894 	push	acc
                           5895 ;	genIpush
   12AD C0 02              5896 	push	ar2
                           5897 ;	genCall
   12AF 75 82 00           5898 	mov	dpl,#0x00
   12B2 12s01rFE           5899 	lcall	_write_byte
   12B5 15 81              5900 	dec	sp
   12B7 15 81              5901 	dec	sp
   12B9 D0 02              5902 	pop	ar2
                           5903 ;	S:/ELEKTR~1/EIB/C/fn_in8/fb_app_in8.c:330: stop_writecycle();
                           5904 ;	genCall
   12BB C0 02              5905 	push	ar2
   12BD 12s01rFA           5906 	lcall	_stop_writecycle
   12C0 D0 02              5907 	pop	ar2
                           5908 ;	S:/ELEKTR~1/EIB/C/fn_in8/fb_app_in8.c:331: delay_zeit=read_byte(0x01,0xEA);
                           5909 ;	genIpush
   12C2 C0 02              5910 	push	ar2
   12C4 74 EA              5911 	mov	a,#0xEA
   12C6 C0 E0              5912 	push	acc
                           5913 ;	genCall
   12C8 75 82 01           5914 	mov	dpl,#0x01
   12CB 12s02r55           5915 	lcall	_read_byte
   12CE AD 82              5916 	mov	r5,dpl
   12D0 15 81              5917 	dec	sp
   12D2 D0 02              5918 	pop	ar2
                           5919 ;	genAssign
                           5920 ;	S:/ELEKTR~1/EIB/C/fn_in8/fb_app_in8.c:332: delay_zeit=((delay_zeit>>n)&0x01);
                           5921 ;	genRightShift
   12D4 A8*00              5922 	mov	r0,_bp
   12D6 08                 5923 	inc	r0
   12D7 86 F0              5924 	mov	b,@r0
   12D9 05 F0              5925 	inc	b
   12DB ED                 5926 	mov	a,r5
   12DC 80 02              5927 	sjmp	00160$
   12DE                    5928 00159$:
   12DE C3                 5929 	clr	c
   12DF 13                 5930 	rrc	a
   12E0                    5931 00160$:
   12E0 D5 F0 FB           5932 	djnz	b,00159$
   12E3 FE                 5933 	mov	r6,a
                           5934 ;	genAnd
   12E4 74 01              5935 	mov	a,#0x01
   12E6 5E                 5936 	anl	a,r6
   12E7 FD                 5937 	mov	r5,a
                           5938 ;	S:/ELEKTR~1/EIB/C/fn_in8/fb_app_in8.c:333: if(delay_zeit==0x01)
                           5939 ;	genCmpEq
                           5940 ;	gencjneshort
   12E8 BD 01 02           5941 	cjne	r5,#0x01,00161$
   12EB 80 03              5942 	sjmp	00162$
   12ED                    5943 00161$:
   12ED 02s14r93           5944 	ljmp	00117$
   12F0                    5945 00162$:
                           5946 ;	S:/ELEKTR~1/EIB/C/fn_in8/fb_app_in8.c:335: delay_base=read_byte(0x01,(((n+1)>>1)+0xF9));   
                           5947 ;	genCast
   12F0 A8*00              5948 	mov	r0,_bp
   12F2 08                 5949 	inc	r0
   12F3 86 06              5950 	mov	ar6,@r0
   12F5 7F 00              5951 	mov	r7,#0x00
                           5952 ;	genPlus
                           5953 ;     genPlusIncr
   12F7 0E                 5954 	inc	r6
   12F8 BE 00 01           5955 	cjne	r6,#0x00,00163$
   12FB 0F                 5956 	inc	r7
   12FC                    5957 00163$:
                           5958 ;	genRightShift
                           5959 ;	genSignedRightShift
                           5960 ;	genRightShiftLiteral
                           5961 ;	genrshTwo
   12FC EF                 5962 	mov	a,r7
   12FD A2 E7              5963 	mov	c,acc.7
   12FF 13                 5964 	rrc	a
   1300 CE                 5965 	xch	a,r6
   1301 13                 5966 	rrc	a
   1302 CE                 5967 	xch	a,r6
   1303 FF                 5968 	mov	r7,a
                           5969 ;	genCast
                           5970 ;	genPlus
                           5971 ;     genPlusIncr
   1304 74 F9              5972 	mov	a,#0xF9
                           5973 ;	Peephole 236.a	used r6 instead of ar6
   1306 2E                 5974 	add	a,r6
   1307 FE                 5975 	mov	r6,a
                           5976 ;	genIpush
   1308 C0 02              5977 	push	ar2
   130A C0 05              5978 	push	ar5
   130C C0 06              5979 	push	ar6
                           5980 ;	genCall
   130E 75 82 01           5981 	mov	dpl,#0x01
   1311 12s02r55           5982 	lcall	_read_byte
   1314 AE 82              5983 	mov	r6,dpl
   1316 15 81              5984 	dec	sp
   1318 D0 05              5985 	pop	ar5
   131A D0 02              5986 	pop	ar2
                           5987 ;	genAssign
   131C 8E 03              5988 	mov	ar3,r6
                           5989 ;	S:/ELEKTR~1/EIB/C/fn_in8/fb_app_in8.c:336: if((n&0x01)==0x01) delay_base&=0x0F;
                           5990 ;	genAnd
   131E A8*00              5991 	mov	r0,_bp
   1320 08                 5992 	inc	r0
   1321 74 01              5993 	mov	a,#0x01
   1323 56                 5994 	anl	a,@r0
   1324 FF                 5995 	mov	r7,a
                           5996 ;	genCmpEq
                           5997 ;	gencjneshort
                           5998 ;	Peephole 112.b	changed ljmp to sjmp
                           5999 ;	Peephole 198.b	optimized misc jump sequence
   1325 BF 01 05           6000 	cjne	r7,#0x01,00105$
                           6001 ;	Peephole 200.b	removed redundant sjmp
                           6002 ;	Peephole 300	removed redundant label 00164$
                           6003 ;	Peephole 300	removed redundant label 00165$
                           6004 ;	genAnd
   1328 53 03 0F           6005 	anl	ar3,#0x0F
                           6006 ;	Peephole 112.b	changed ljmp to sjmp
   132B 80 08              6007 	sjmp	00106$
   132D                    6008 00105$:
                           6009 ;	S:/ELEKTR~1/EIB/C/fn_in8/fb_app_in8.c:337: else delay_base=(delay_base&0xF0)>>4;
                           6010 ;	genAnd
   132D 74 F0              6011 	mov	a,#0xF0
   132F 5B                 6012 	anl	a,r3
                           6013 ;	genRightShift
                           6014 ;	genRightShiftLiteral
                           6015 ;	genrshOne
   1330 FF                 6016 	mov	r7,a
                           6017 ;	Peephole 105	removed redundant mov
   1331 C4                 6018 	swap	a
   1332 54 0F              6019 	anl	a,#0x0f
   1334 FB                 6020 	mov	r3,a
   1335                    6021 00106$:
                           6022 ;	S:/ELEKTR~1/EIB/C/fn_in8/fb_app_in8.c:338: delay_onoff=read_byte(0x01,(n+0xE2));
                           6023 ;	genPlus
   1335 A8*00              6024 	mov	r0,_bp
   1337 08                 6025 	inc	r0
                           6026 ;     genPlusIncr
   1338 74 E2              6027 	mov	a,#0xE2
   133A 26                 6028 	add	a,@r0
   133B FF                 6029 	mov	r7,a
                           6030 ;	genIpush
   133C C0 02              6031 	push	ar2
   133E C0 03              6032 	push	ar3
   1340 C0 05              6033 	push	ar5
   1342 C0 07              6034 	push	ar7
                           6035 ;	genCall
   1344 75 82 01           6036 	mov	dpl,#0x01
   1347 12s02r55           6037 	lcall	_read_byte
   134A AF 82              6038 	mov	r7,dpl
   134C 15 81              6039 	dec	sp
   134E D0 05              6040 	pop	ar5
   1350 D0 03              6041 	pop	ar3
   1352 D0 02              6042 	pop	ar2
                           6043 ;	genAssign
                           6044 ;	S:/ELEKTR~1/EIB/C/fn_in8/fb_app_in8.c:339: if (delay_onoff!=0x00 && delay_zeit!=0x00)
                           6045 ;	genCmpEq
                           6046 ;	gencjneshort
   1354 BF 00 03           6047 	cjne	r7,#0x00,00166$
   1357 02s14r93           6048 	ljmp	00117$
   135A                    6049 00166$:
                           6050 ;	genCmpEq
                           6051 ;	gencjneshort
   135A BD 00 03           6052 	cjne	r5,#0x00,00167$
   135D 02s14r93           6053 	ljmp	00117$
   1360                    6054 00167$:
                           6055 ;	S:/ELEKTR~1/EIB/C/fn_in8/fb_app_in8.c:341: delay_target=delay_onoff;
                           6056 ;	genCast
   1360 E5*00              6057 	mov	a,_bp
   1362 24 06              6058 	add	a,#0x06
   1364 F8                 6059 	mov	r0,a
   1365 A6 07              6060 	mov	@r0,ar7
   1367 08                 6061 	inc	r0
   1368 76 00              6062 	mov	@r0,#0x00
   136A 08                 6063 	inc	r0
   136B 76 00              6064 	mov	@r0,#0x00
   136D 08                 6065 	inc	r0
   136E 76 00              6066 	mov	@r0,#0x00
                           6067 ;	S:/ELEKTR~1/EIB/C/fn_in8/fb_app_in8.c:342: delay_target=delay_target<<delay_base;
                           6068 ;	genLeftShift
   1370 8B F0              6069 	mov	b,r3
   1372 05 F0              6070 	inc	b
   1374 E5*00              6071 	mov	a,_bp
   1376 24 06              6072 	add	a,#0x06
   1378 F8                 6073 	mov	r0,a
   1379 80 13              6074 	sjmp	00169$
   137B                    6075 00168$:
   137B E6                 6076 	mov	a,@r0
   137C 25 E0              6077 	add	a,acc
   137E F6                 6078 	mov	@r0,a
   137F 08                 6079 	inc	r0
   1380 E6                 6080 	mov	a,@r0
   1381 33                 6081 	rlc	a
   1382 F6                 6082 	mov	@r0,a
   1383 08                 6083 	inc	r0
   1384 E6                 6084 	mov	a,@r0
   1385 33                 6085 	rlc	a
   1386 F6                 6086 	mov	@r0,a
   1387 08                 6087 	inc	r0
   1388 E6                 6088 	mov	a,@r0
   1389 33                 6089 	rlc	a
   138A F6                 6090 	mov	@r0,a
   138B 18                 6091 	dec	r0
   138C 18                 6092 	dec	r0
   138D 18                 6093 	dec	r0
   138E                    6094 00169$:
   138E D5 F0 EA           6095 	djnz	b,00168$
                           6096 ;	S:/ELEKTR~1/EIB/C/fn_in8/fb_app_in8.c:343: delay_target+=timer;  
                           6097 ;	genPlus
   1391 E5*00              6098 	mov	a,_bp
   1393 24 06              6099 	add	a,#0x06
   1395 F8                 6100 	mov	r0,a
   1396 E5*23              6101 	mov	a,_timer
   1398 26                 6102 	add	a,@r0
   1399 F6                 6103 	mov	@r0,a
   139A E5*24              6104 	mov	a,(_timer + 1)
   139C 08                 6105 	inc	r0
   139D 36                 6106 	addc	a,@r0
   139E F6                 6107 	mov	@r0,a
   139F E5*25              6108 	mov	a,(_timer + 2)
   13A1 08                 6109 	inc	r0
   13A2 36                 6110 	addc	a,@r0
   13A3 F6                 6111 	mov	@r0,a
   13A4 E5*26              6112 	mov	a,(_timer + 3)
   13A6 08                 6113 	inc	r0
   13A7 36                 6114 	addc	a,@r0
   13A8 F6                 6115 	mov	@r0,a
                           6116 ;	S:/ELEKTR~1/EIB/C/fn_in8/fb_app_in8.c:344: start_writecycle();   
                           6117 ;	genCall
   13A9 C0 02              6118 	push	ar2
   13AB 12s01rF6           6119 	lcall	_start_writecycle
   13AE D0 02              6120 	pop	ar2
                           6121 ;	S:/ELEKTR~1/EIB/C/fn_in8/fb_app_in8.c:345: write_byte(0x00,n*5,n+0x80);
                           6122 ;	genPlus
   13B0 A8*00              6123 	mov	r0,_bp
   13B2 08                 6124 	inc	r0
                           6125 ;     genPlusIncr
   13B3 74 80              6126 	mov	a,#0x80
   13B5 26                 6127 	add	a,@r0
   13B6 FB                 6128 	mov	r3,a
                           6129 ;	genIpush
   13B7 C0 02              6130 	push	ar2
   13B9 C0 03              6131 	push	ar3
                           6132 ;	genIpush
   13BB C0 02              6133 	push	ar2
                           6134 ;	genCall
   13BD 75 82 00           6135 	mov	dpl,#0x00
   13C0 12s01rFE           6136 	lcall	_write_byte
   13C3 15 81              6137 	dec	sp
   13C5 15 81              6138 	dec	sp
   13C7 D0 02              6139 	pop	ar2
                           6140 ;	S:/ELEKTR~1/EIB/C/fn_in8/fb_app_in8.c:346: write_byte(0x00,1+n*5,delay_target>>24);
                           6141 ;	genGetByte
   13C9 E5*00              6142 	mov	a,_bp
   13CB 24 06              6143 	add	a,#0x06
                           6144 ;	Peephole 185	changed order of increment (acc incremented also!)
   13CD 04                 6145 	inc	a
                           6146 ;	Peephole 185	changed order of increment (acc incremented also!)
   13CE 04                 6147 	inc	a
                           6148 ;	Peephole 185	changed order of increment (acc incremented also!)
   13CF 04                 6149 	inc	a
   13D0 F8                 6150 	mov	r0,a
   13D1 86 03              6151 	mov	ar3,@r0
                           6152 ;	genPlus
                           6153 ;     genPlusIncr
   13D3 74 01              6154 	mov	a,#0x01
                           6155 ;	Peephole 236.a	used r2 instead of ar2
   13D5 2A                 6156 	add	a,r2
   13D6 FD                 6157 	mov	r5,a
                           6158 ;	genIpush
   13D7 C0 02              6159 	push	ar2
   13D9 C0 03              6160 	push	ar3
                           6161 ;	genIpush
   13DB C0 05              6162 	push	ar5
                           6163 ;	genCall
   13DD 75 82 00           6164 	mov	dpl,#0x00
   13E0 12s01rFE           6165 	lcall	_write_byte
   13E3 15 81              6166 	dec	sp
   13E5 15 81              6167 	dec	sp
   13E7 D0 02              6168 	pop	ar2
                           6169 ;	S:/ELEKTR~1/EIB/C/fn_in8/fb_app_in8.c:347: write_byte(0x00,2+n*5,delay_target>>16);
                           6170 ;	genGetByte
   13E9 E5*00              6171 	mov	a,_bp
   13EB 24 06              6172 	add	a,#0x06
                           6173 ;	Peephole 185	changed order of increment (acc incremented also!)
   13ED 04                 6174 	inc	a
                           6175 ;	Peephole 185	changed order of increment (acc incremented also!)
   13EE 04                 6176 	inc	a
   13EF F8                 6177 	mov	r0,a
   13F0 86 03              6178 	mov	ar3,@r0
                           6179 ;	genPlus
                           6180 ;     genPlusIncr
   13F2 74 02              6181 	mov	a,#0x02
                           6182 ;	Peephole 236.a	used r2 instead of ar2
   13F4 2A                 6183 	add	a,r2
   13F5 FD                 6184 	mov	r5,a
                           6185 ;	genIpush
   13F6 C0 02              6186 	push	ar2
   13F8 C0 03              6187 	push	ar3
                           6188 ;	genIpush
   13FA C0 05              6189 	push	ar5
                           6190 ;	genCall
   13FC 75 82 00           6191 	mov	dpl,#0x00
   13FF 12s01rFE           6192 	lcall	_write_byte
   1402 15 81              6193 	dec	sp
   1404 15 81              6194 	dec	sp
   1406 D0 02              6195 	pop	ar2
                           6196 ;	S:/ELEKTR~1/EIB/C/fn_in8/fb_app_in8.c:348: write_byte(0x00,3+n*5,delay_target>>8);
                           6197 ;	genGetByte
   1408 E5*00              6198 	mov	a,_bp
   140A 24 06              6199 	add	a,#0x06
                           6200 ;	Peephole 185	changed order of increment (acc incremented also!)
   140C 04                 6201 	inc	a
   140D F8                 6202 	mov	r0,a
   140E 86 03              6203 	mov	ar3,@r0
                           6204 ;	genPlus
                           6205 ;     genPlusIncr
   1410 74 03              6206 	mov	a,#0x03
                           6207 ;	Peephole 236.a	used r2 instead of ar2
   1412 2A                 6208 	add	a,r2
   1413 FD                 6209 	mov	r5,a
                           6210 ;	genIpush
   1414 C0 02              6211 	push	ar2
   1416 C0 03              6212 	push	ar3
                           6213 ;	genIpush
   1418 C0 05              6214 	push	ar5
                           6215 ;	genCall
   141A 75 82 00           6216 	mov	dpl,#0x00
   141D 12s01rFE           6217 	lcall	_write_byte
   1420 15 81              6218 	dec	sp
   1422 15 81              6219 	dec	sp
   1424 D0 02              6220 	pop	ar2
                           6221 ;	S:/ELEKTR~1/EIB/C/fn_in8/fb_app_in8.c:349: write_byte(0x00,4+n*5,delay_target);
                           6222 ;	genCast
   1426 E5*00              6223 	mov	a,_bp
   1428 24 06              6224 	add	a,#0x06
   142A F8                 6225 	mov	r0,a
   142B 86 07              6226 	mov	ar7,@r0
                           6227 ;	genPlus
                           6228 ;     genPlusIncr
   142D 74 04              6229 	mov	a,#0x04
                           6230 ;	Peephole 236.a	used r2 instead of ar2
   142F 2A                 6231 	add	a,r2
   1430 FB                 6232 	mov	r3,a
                           6233 ;	genIpush
   1431 C0 07              6234 	push	ar7
                           6235 ;	genIpush
   1433 C0 03              6236 	push	ar3
                           6237 ;	genCall
   1435 75 82 00           6238 	mov	dpl,#0x00
   1438 12s01rFE           6239 	lcall	_write_byte
   143B 15 81              6240 	dec	sp
   143D 15 81              6241 	dec	sp
                           6242 ;	S:/ELEKTR~1/EIB/C/fn_in8/fb_app_in8.c:350: stop_writecycle();
                           6243 ;	genCall
   143F 12s01rFA           6244 	lcall	_stop_writecycle
                           6245 ;	Peephole 112.b	changed ljmp to sjmp
   1442 80 4F              6246 	sjmp	00117$
   1444                    6247 00116$:
                           6248 ;	S:/ELEKTR~1/EIB/C/fn_in8/fb_app_in8.c:356: if (((read_byte(0x01,RELMODE)>>(b&0x0F))&0x01)==0x00)
                           6249 ;	genIpush
   1444 C0 02              6250 	push	ar2
   1446 C0 04              6251 	push	ar4
   1448 74 F2              6252 	mov	a,#0xF2
   144A C0 E0              6253 	push	acc
                           6254 ;	genCall
   144C 75 82 01           6255 	mov	dpl,#0x01
   144F 12s02r55           6256 	lcall	_read_byte
   1452 AB 82              6257 	mov	r3,dpl
   1454 15 81              6258 	dec	sp
   1456 D0 04              6259 	pop	ar4
   1458 D0 02              6260 	pop	ar2
                           6261 ;	genAnd
   145A 74 0F              6262 	mov	a,#0x0F
   145C 5C                 6263 	anl	a,r4
                           6264 ;	genRightShift
                           6265 ;	Peephole 185	changed order of increment (acc incremented also!)
   145D 04                 6266 	inc	a
   145E F5 F0              6267 	mov	b,a
   1460 EB                 6268 	mov	a,r3
   1461 80 02              6269 	sjmp	00171$
   1463                    6270 00170$:
   1463 C3                 6271 	clr	c
   1464 13                 6272 	rrc	a
   1465                    6273 00171$:
   1465 D5 F0 FB           6274 	djnz	b,00170$
                           6275 ;	genAnd
                           6276 ;	genIfxJump
                           6277 ;	Peephole 108.e	removed ljmp by inverse jump logic
   1468 20 E0 07           6278 	jb	acc.0,00113$
                           6279 ;	Peephole 300	removed redundant label 00172$
                           6280 ;	S:/ELEKTR~1/EIB/C/fn_in8/fb_app_in8.c:358: portbuffer=portbuffer&~port_pattern;		// Ausschalten (Schliesserbetrieb)
                           6281 ;	genCpl
   146B EA                 6282 	mov	a,r2
   146C F4                 6283 	cpl	a
                           6284 ;	genAnd
   146D FB                 6285 	mov	r3,a
                           6286 ;	Peephole 105	removed redundant mov
   146E 52*1F              6287 	anl	_portbuffer,a
                           6288 ;	Peephole 112.b	changed ljmp to sjmp
   1470 80 03              6289 	sjmp	00114$
   1472                    6290 00113$:
                           6291 ;	S:/ELEKTR~1/EIB/C/fn_in8/fb_app_in8.c:362: portbuffer=portbuffer|port_pattern;			// Ausschalten (Öffnerbetrieb)
                           6292 ;	genOr
   1472 EA                 6293 	mov	a,r2
   1473 42*1F              6294 	orl	_portbuffer,a
   1475                    6295 00114$:
                           6296 ;	S:/ELEKTR~1/EIB/C/fn_in8/fb_app_in8.c:364: start_writecycle();
                           6297 ;	genCall
   1475 12s01rF6           6298 	lcall	_start_writecycle
                           6299 ;	S:/ELEKTR~1/EIB/C/fn_in8/fb_app_in8.c:365: write_byte(0x00,n*5,0x00);
                           6300 ;	genMult
   1478 A8*00              6301 	mov	r0,_bp
   147A 08                 6302 	inc	r0
                           6303 ;	genMultOneByte
   147B E6                 6304 	mov	a,@r0
   147C 75 F0 05           6305 	mov	b,#0x05
   147F A4                 6306 	mul	ab
   1480 FA                 6307 	mov	r2,a
                           6308 ;	genIpush
                           6309 ;	Peephole 181	changed mov to clr
   1481 E4                 6310 	clr	a
   1482 C0 E0              6311 	push	acc
                           6312 ;	genIpush
   1484 C0 02              6313 	push	ar2
                           6314 ;	genCall
   1486 75 82 00           6315 	mov	dpl,#0x00
   1489 12s01rFE           6316 	lcall	_write_byte
   148C 15 81              6317 	dec	sp
   148E 15 81              6318 	dec	sp
                           6319 ;	S:/ELEKTR~1/EIB/C/fn_in8/fb_app_in8.c:366: stop_writecycle();
                           6320 ;	genCall
   1490 12s01rFA           6321 	lcall	_stop_writecycle
   1493                    6322 00117$:
                           6323 ;	S:/ELEKTR~1/EIB/C/fn_in8/fb_app_in8.c:368: TH0=0;					// Port-Ausgabe
                           6324 ;	genAssign
   1493 75 8C 00           6325 	mov	_TH0,#0x00
                           6326 ;	S:/ELEKTR~1/EIB/C/fn_in8/fb_app_in8.c:369: P1_2=1;
                           6327 ;	genAssign
   1496 D2 92              6328 	setb	_P1_2
                           6329 ;	S:/ELEKTR~1/EIB/C/fn_in8/fb_app_in8.c:370: P0=portbuffer;	
                           6330 ;	genAssign
   1498 85*1F 80           6331 	mov	_P0,_portbuffer
                           6332 ;	S:/ELEKTR~1/EIB/C/fn_in8/fb_app_in8.c:371: start_writecycle();
                           6333 ;	genCall
   149B 12s01rF6           6334 	lcall	_start_writecycle
                           6335 ;	S:/ELEKTR~1/EIB/C/fn_in8/fb_app_in8.c:372: write_byte(0x00,0x29,portbuffer);
                           6336 ;	genIpush
   149E C0*1F              6337 	push	_portbuffer
                           6338 ;	genIpush
   14A0 74 29              6339 	mov	a,#0x29
   14A2 C0 E0              6340 	push	acc
                           6341 ;	genCall
   14A4 75 82 00           6342 	mov	dpl,#0x00
   14A7 12s01rFE           6343 	lcall	_write_byte
   14AA 15 81              6344 	dec	sp
   14AC 15 81              6345 	dec	sp
                           6346 ;	S:/ELEKTR~1/EIB/C/fn_in8/fb_app_in8.c:373: stop_writecycle();
                           6347 ;	genCall
   14AE 12s01rFA           6348 	lcall	_stop_writecycle
                           6349 ;	S:/ELEKTR~1/EIB/C/fn_in8/fb_app_in8.c:374: TR1=0;					
                           6350 ;	genAssign
   14B1 C2 8E              6351 	clr	_TCON_6
                           6352 ;	S:/ELEKTR~1/EIB/C/fn_in8/fb_app_in8.c:375: TF1=0;
                           6353 ;	genAssign
   14B3 C2 8F              6354 	clr	_TCON_7
                           6355 ;	S:/ELEKTR~1/EIB/C/fn_in8/fb_app_in8.c:376: TH1=0xA0;				// Relais zunächst mit vollem Strom einschalten...
                           6356 ;	genAssign
   14B5 75 8D A0           6357 	mov	_TH1,#0xA0
                           6358 ;	S:/ELEKTR~1/EIB/C/fn_in8/fb_app_in8.c:377: TL1=0x00;				
                           6359 ;	genAssign
   14B8 75 8B 00           6360 	mov	_TL1,#0x00
                           6361 ;	S:/ELEKTR~1/EIB/C/fn_in8/fb_app_in8.c:378: TR1=1;
                           6362 ;	genAssign
   14BB D2 8E              6363 	setb	_TCON_6
                           6364 ;	S:/ELEKTR~1/EIB/C/fn_in8/fb_app_in8.c:379: while (!TF1);
   14BD                    6365 00118$:
                           6366 ;	genIfx
                           6367 ;	genIfxJump
                           6368 ;	Peephole 108.d	removed ljmp by inverse jump logic
   14BD 30 8F FD           6369 	jnb	_TCON_7,00118$
                           6370 ;	Peephole 300	removed redundant label 00173$
                           6371 ;	S:/ELEKTR~1/EIB/C/fn_in8/fb_app_in8.c:380: TR1=0;
                           6372 ;	genAssign
   14C0 C2 8E              6373 	clr	_TCON_6
                           6374 ;	S:/ELEKTR~1/EIB/C/fn_in8/fb_app_in8.c:381: TH0=DUTY;				// ...danach mit PWM halten (min5% von I nominal)    
                           6375 ;	genAssign
   14C2 75 8C C0           6376 	mov	_TH0,#0xC0
   14C5                    6377 00127$:
                           6378 ;	S:/ELEKTR~1/EIB/C/fn_in8/fb_app_in8.c:306: for(n=0;n<=7;n++)
                           6379 ;	genPlus
   14C5 A8*00              6380 	mov	r0,_bp
   14C7 08                 6381 	inc	r0
                           6382 ;     genPlusIncr
   14C8 06                 6383 	inc	@r0
   14C9 02s10rC4           6384 	ljmp	00125$
   14CC                    6385 00128$:
                           6386 ;	S:/ELEKTR~1/EIB/C/fn_in8/fb_app_in8.c:387: RTCCON=0x61;		// RTC starten
                           6387 ;	genAssign
   14CC 75 D1 61           6388 	mov	_RTCCON,#0x61
                           6389 ;	Peephole 300	removed redundant label 00129$
   14CF 85*00 81           6390 	mov	sp,_bp
   14D2 D0*00              6391 	pop	_bp
   14D4 22                 6392 	ret
                           6393 ;------------------------------------------------------------
                           6394 ;Allocation info for local variables in function 'restart_app'
                           6395 ;------------------------------------------------------------
                           6396 ;bw                        Allocated to registers r2 
                           6397 ;bwh                       Allocated to registers r4 
                           6398 ;n                         Allocated to registers r3 
                           6399 ;------------------------------------------------------------
                           6400 ;	S:/ELEKTR~1/EIB/C/fn_in8/fb_app_in8.c:391: void restart_app(void)		// Alle Applikations-Parameter zurücksetzen
                           6401 ;	-----------------------------------------
                           6402 ;	 function restart_app
                           6403 ;	-----------------------------------------
   14D5                    6404 _restart_app:
                           6405 ;	S:/ELEKTR~1/EIB/C/fn_in8/fb_app_in8.c:396: portbuffer=read_byte(0x00,0x29);	// Verhalten nach Busspannungs-Wiederkehr
                           6406 ;	genIpush
   14D5 74 29              6407 	mov	a,#0x29
   14D7 C0 E0              6408 	push	acc
                           6409 ;	genCall
   14D9 75 82 00           6410 	mov	dpl,#0x00
   14DC 12s02r55           6411 	lcall	_read_byte
   14DF 85 82*1F           6412 	mov	_portbuffer,dpl
   14E2 15 81              6413 	dec	sp
                           6414 ;	S:/ELEKTR~1/EIB/C/fn_in8/fb_app_in8.c:397: bw=read_byte(0x01,0xF6);
                           6415 ;	genIpush
   14E4 74 F6              6416 	mov	a,#0xF6
   14E6 C0 E0              6417 	push	acc
                           6418 ;	genCall
   14E8 75 82 01           6419 	mov	dpl,#0x01
   14EB 12s02r55           6420 	lcall	_read_byte
   14EE AA 82              6421 	mov	r2,dpl
   14F0 15 81              6422 	dec	sp
                           6423 ;	genAssign
                           6424 ;	S:/ELEKTR~1/EIB/C/fn_in8/fb_app_in8.c:398: for(n=0;n<=3;n++)			// Ausgänge 1-4
                           6425 ;	genAssign
   14F2 7B 00              6426 	mov	r3,#0x00
   14F4                    6427 00109$:
                           6428 ;	genCmpGt
                           6429 ;	genCmp
                           6430 ;	genIfxJump
                           6431 ;	Peephole 132.b	optimized genCmpGt by inverse logic (acc differs)
   14F4 EB                 6432 	mov	a,r3
   14F5 24 FC              6433 	add	a,#0xff - 0x03
                           6434 ;	Peephole 112.b	changed ljmp to sjmp
                           6435 ;	Peephole 160.a	removed sjmp by inverse jump logic
   14F7 40 45              6436 	jc	00112$
                           6437 ;	Peephole 300	removed redundant label 00129$
                           6438 ;	S:/ELEKTR~1/EIB/C/fn_in8/fb_app_in8.c:400: bwh=(bw>>(2*n))&0x03; 
                           6439 ;	genMult
                           6440 ;	genMultOneByte
   14F9 EB                 6441 	mov	a,r3
   14FA 75 F0 02           6442 	mov	b,#0x02
   14FD A4                 6443 	mul	ab
   14FE FC                 6444 	mov	r4,a
   14FF AD F0              6445 	mov	r5,b
                           6446 ;	genRightShift
   1501 8C F0              6447 	mov	b,r4
   1503 05 F0              6448 	inc	b
   1505 EA                 6449 	mov	a,r2
   1506 80 02              6450 	sjmp	00131$
   1508                    6451 00130$:
   1508 C3                 6452 	clr	c
   1509 13                 6453 	rrc	a
   150A                    6454 00131$:
   150A D5 F0 FB           6455 	djnz	b,00130$
   150D FC                 6456 	mov	r4,a
                           6457 ;	genAnd
   150E 53 04 03           6458 	anl	ar4,#0x03
                           6459 ;	S:/ELEKTR~1/EIB/C/fn_in8/fb_app_in8.c:401: if(bwh==0x01)  portbuffer=portbuffer & (0xFF-(0x01<<n));
                           6460 ;	genCmpEq
                           6461 ;	gencjneshort
                           6462 ;	Peephole 112.b	changed ljmp to sjmp
                           6463 ;	Peephole 198.b	optimized misc jump sequence
   1511 BC 01 14           6464 	cjne	r4,#0x01,00102$
                           6465 ;	Peephole 200.b	removed redundant sjmp
                           6466 ;	Peephole 300	removed redundant label 00132$
                           6467 ;	Peephole 300	removed redundant label 00133$
                           6468 ;	genLeftShift
   1514 8B F0              6469 	mov	b,r3
   1516 05 F0              6470 	inc	b
   1518 74 01              6471 	mov	a,#0x01
   151A 80 02              6472 	sjmp	00136$
   151C                    6473 00134$:
   151C 25 E0              6474 	add	a,acc
   151E                    6475 00136$:
   151E D5 F0 FB           6476 	djnz	b,00134$
   1521 FD                 6477 	mov	r5,a
                           6478 ;	genMinus
   1522 74 FF              6479 	mov	a,#0xFF
   1524 C3                 6480 	clr	c
                           6481 ;	Peephole 236.l	used r5 instead of ar5
   1525 9D                 6482 	subb	a,r5
                           6483 ;	genAnd
   1526 52*1F              6484 	anl	_portbuffer,a
   1528                    6485 00102$:
                           6486 ;	S:/ELEKTR~1/EIB/C/fn_in8/fb_app_in8.c:402: if(bwh==0x02)  portbuffer=portbuffer | (0x01<<n);
                           6487 ;	genCmpEq
                           6488 ;	gencjneshort
                           6489 ;	Peephole 112.b	changed ljmp to sjmp
                           6490 ;	Peephole 198.b	optimized misc jump sequence
   1528 BC 02 10           6491 	cjne	r4,#0x02,00111$
                           6492 ;	Peephole 200.b	removed redundant sjmp
                           6493 ;	Peephole 300	removed redundant label 00137$
                           6494 ;	Peephole 300	removed redundant label 00138$
                           6495 ;	genLeftShift
   152B 8B F0              6496 	mov	b,r3
   152D 05 F0              6497 	inc	b
   152F 74 01              6498 	mov	a,#0x01
   1531 80 02              6499 	sjmp	00141$
   1533                    6500 00139$:
   1533 25 E0              6501 	add	a,acc
   1535                    6502 00141$:
   1535 D5 F0 FB           6503 	djnz	b,00139$
                           6504 ;	genOr
   1538 FD                 6505 	mov	r5,a
                           6506 ;	Peephole 105	removed redundant mov
   1539 42*1F              6507 	orl	_portbuffer,a
   153B                    6508 00111$:
                           6509 ;	S:/ELEKTR~1/EIB/C/fn_in8/fb_app_in8.c:398: for(n=0;n<=3;n++)			// Ausgänge 1-4
                           6510 ;	genPlus
                           6511 ;     genPlusIncr
   153B 0B                 6512 	inc	r3
                           6513 ;	Peephole 112.b	changed ljmp to sjmp
   153C 80 B6              6514 	sjmp	00109$
   153E                    6515 00112$:
                           6516 ;	S:/ELEKTR~1/EIB/C/fn_in8/fb_app_in8.c:404: bw=read_byte(0x01,0xF7);
                           6517 ;	genIpush
   153E 74 F7              6518 	mov	a,#0xF7
   1540 C0 E0              6519 	push	acc
                           6520 ;	genCall
   1542 75 82 01           6521 	mov	dpl,#0x01
   1545 12s02r55           6522 	lcall	_read_byte
   1548 AB 82              6523 	mov	r3,dpl
   154A 15 81              6524 	dec	sp
                           6525 ;	genAssign
   154C 8B 02              6526 	mov	ar2,r3
                           6527 ;	S:/ELEKTR~1/EIB/C/fn_in8/fb_app_in8.c:405: for(n=0;n<=3;n++)			// Ausgänge 5-8
                           6528 ;	genAssign
   154E 7B 00              6529 	mov	r3,#0x00
   1550                    6530 00113$:
                           6531 ;	genCmpGt
                           6532 ;	genCmp
                           6533 ;	genIfxJump
                           6534 ;	Peephole 132.b	optimized genCmpGt by inverse logic (acc differs)
   1550 EB                 6535 	mov	a,r3
   1551 24 FC              6536 	add	a,#0xff - 0x03
   1553 50 03              6537 	jnc	00142$
   1555 02s15rC5           6538 	ljmp	00116$
   1558                    6539 00142$:
                           6540 ;	S:/ELEKTR~1/EIB/C/fn_in8/fb_app_in8.c:407: bwh=(bw>>(2*n))&0x03; 
                           6541 ;	genMult
                           6542 ;	genMultOneByte
   1558 EB                 6543 	mov	a,r3
   1559 75 F0 02           6544 	mov	b,#0x02
   155C A4                 6545 	mul	ab
   155D FD                 6546 	mov	r5,a
   155E AE F0              6547 	mov	r6,b
                           6548 ;	genRightShift
   1560 8D F0              6549 	mov	b,r5
   1562 05 F0              6550 	inc	b
   1564 EA                 6551 	mov	a,r2
   1565 80 02              6552 	sjmp	00144$
   1567                    6553 00143$:
   1567 C3                 6554 	clr	c
   1568 13                 6555 	rrc	a
   1569                    6556 00144$:
   1569 D5 F0 FB           6557 	djnz	b,00143$
   156C FD                 6558 	mov	r5,a
                           6559 ;	genAnd
   156D 74 03              6560 	mov	a,#0x03
   156F 5D                 6561 	anl	a,r5
   1570 FC                 6562 	mov	r4,a
                           6563 ;	S:/ELEKTR~1/EIB/C/fn_in8/fb_app_in8.c:408: if(bwh==0x01)  portbuffer=portbuffer & (0xFF-(0x01<<(n+4)));
                           6564 ;	genCmpEq
                           6565 ;	gencjneshort
                           6566 ;	Peephole 112.b	changed ljmp to sjmp
                           6567 ;	Peephole 198.b	optimized misc jump sequence
   1571 BC 01 29           6568 	cjne	r4,#0x01,00106$
                           6569 ;	Peephole 200.b	removed redundant sjmp
                           6570 ;	Peephole 300	removed redundant label 00145$
                           6571 ;	Peephole 300	removed redundant label 00146$
                           6572 ;	genCast
   1574 8B 05              6573 	mov	ar5,r3
   1576 7E 00              6574 	mov	r6,#0x00
                           6575 ;	genPlus
                           6576 ;     genPlusIncr
   1578 74 04              6577 	mov	a,#0x04
                           6578 ;	Peephole 236.a	used r5 instead of ar5
   157A 2D                 6579 	add	a,r5
   157B FD                 6580 	mov	r5,a
                           6581 ;	Peephole 181	changed mov to clr
   157C E4                 6582 	clr	a
                           6583 ;	Peephole 236.b	used r6 instead of ar6
   157D 3E                 6584 	addc	a,r6
   157E FE                 6585 	mov	r6,a
                           6586 ;	genLeftShift
   157F 8D F0              6587 	mov	b,r5
   1581 05 F0              6588 	inc	b
   1583 7D 01              6589 	mov	r5,#0x01
   1585 7E 00              6590 	mov	r6,#0x00
   1587 80 06              6591 	sjmp	00148$
   1589                    6592 00147$:
   1589 ED                 6593 	mov	a,r5
                           6594 ;	Peephole 254	optimized left shift
   158A 2D                 6595 	add	a,r5
   158B FD                 6596 	mov	r5,a
   158C EE                 6597 	mov	a,r6
   158D 33                 6598 	rlc	a
   158E FE                 6599 	mov	r6,a
   158F                    6600 00148$:
   158F D5 F0 F7           6601 	djnz	b,00147$
                           6602 ;	genMinus
   1592 74 FF              6603 	mov	a,#0xFF
   1594 C3                 6604 	clr	c
                           6605 ;	Peephole 236.l	used r5 instead of ar5
   1595 9D                 6606 	subb	a,r5
   1596 FD                 6607 	mov	r5,a
                           6608 ;	Peephole 181	changed mov to clr
   1597 E4                 6609 	clr	a
                           6610 ;	Peephole 236.l	used r6 instead of ar6
   1598 9E                 6611 	subb	a,r6
   1599 FE                 6612 	mov	r6,a
                           6613 ;	genCast
                           6614 ;	genAnd
   159A ED                 6615 	mov	a,r5
   159B 52*1F              6616 	anl	_portbuffer,a
   159D                    6617 00106$:
                           6618 ;	S:/ELEKTR~1/EIB/C/fn_in8/fb_app_in8.c:409: if(bwh==0x02)  portbuffer=portbuffer | (0x01<<(n+4));
                           6619 ;	genCmpEq
                           6620 ;	gencjneshort
                           6621 ;	Peephole 112.b	changed ljmp to sjmp
                           6622 ;	Peephole 198.b	optimized misc jump sequence
   159D BC 02 21           6623 	cjne	r4,#0x02,00115$
                           6624 ;	Peephole 200.b	removed redundant sjmp
                           6625 ;	Peephole 300	removed redundant label 00149$
                           6626 ;	Peephole 300	removed redundant label 00150$
                           6627 ;	genCast
   15A0 8B 04              6628 	mov	ar4,r3
   15A2 7D 00              6629 	mov	r5,#0x00
                           6630 ;	genPlus
                           6631 ;     genPlusIncr
   15A4 74 04              6632 	mov	a,#0x04
                           6633 ;	Peephole 236.a	used r4 instead of ar4
   15A6 2C                 6634 	add	a,r4
   15A7 FC                 6635 	mov	r4,a
                           6636 ;	Peephole 181	changed mov to clr
   15A8 E4                 6637 	clr	a
                           6638 ;	Peephole 236.b	used r5 instead of ar5
   15A9 3D                 6639 	addc	a,r5
   15AA FD                 6640 	mov	r5,a
                           6641 ;	genLeftShift
   15AB 8C F0              6642 	mov	b,r4
   15AD 05 F0              6643 	inc	b
   15AF 7C 01              6644 	mov	r4,#0x01
   15B1 7D 00              6645 	mov	r5,#0x00
   15B3 80 06              6646 	sjmp	00152$
   15B5                    6647 00151$:
   15B5 EC                 6648 	mov	a,r4
                           6649 ;	Peephole 254	optimized left shift
   15B6 2C                 6650 	add	a,r4
   15B7 FC                 6651 	mov	r4,a
   15B8 ED                 6652 	mov	a,r5
   15B9 33                 6653 	rlc	a
   15BA FD                 6654 	mov	r5,a
   15BB                    6655 00152$:
   15BB D5 F0 F7           6656 	djnz	b,00151$
                           6657 ;	genCast
                           6658 ;	genOr
   15BE EC                 6659 	mov	a,r4
   15BF 42*1F              6660 	orl	_portbuffer,a
   15C1                    6661 00115$:
                           6662 ;	S:/ELEKTR~1/EIB/C/fn_in8/fb_app_in8.c:405: for(n=0;n<=3;n++)			// Ausgänge 5-8
                           6663 ;	genPlus
                           6664 ;     genPlusIncr
   15C1 0B                 6665 	inc	r3
   15C2 02s15r50           6666 	ljmp	00113$
   15C5                    6667 00116$:
                           6668 ;	S:/ELEKTR~1/EIB/C/fn_in8/fb_app_in8.c:411: P0=portbuffer;
                           6669 ;	genAssign
   15C5 85*1F 80           6670 	mov	_P0,_portbuffer
                           6671 ;	S:/ELEKTR~1/EIB/C/fn_in8/fb_app_in8.c:412: objstate=portbuffer<<8;
                           6672 ;	genCast
   15C8 AA*1F              6673 	mov	r2,_portbuffer
   15CA 7B 00              6674 	mov	r3,#0x00
                           6675 ;	genLeftShift
                           6676 ;	genLeftShiftLiteral
                           6677 ;	genlshTwo
   15CC 8A*22              6678 	mov	(_objstate + 1),r2
   15CE 75*21 00           6679 	mov	_objstate,#0x00
                           6680 ;	S:/ELEKTR~1/EIB/C/fn_in8/fb_app_in8.c:413: objstate+=portbuffer;
                           6681 ;	genPlus
                           6682 ;	Peephole 236.g	used r2 instead of ar2
   15D1 EA                 6683 	mov	a,r2
   15D2 25*21              6684 	add	a,_objstate
   15D4 F5*21              6685 	mov	_objstate,a
                           6686 ;	Peephole 236.g	used r3 instead of ar3
   15D6 EB                 6687 	mov	a,r3
   15D7 35*22              6688 	addc	a,(_objstate + 1)
   15D9 F5*22              6689 	mov	(_objstate + 1),a
                           6690 ;	S:/ELEKTR~1/EIB/C/fn_in8/fb_app_in8.c:414: start_writecycle();
                           6691 ;	genCall
   15DB 12s01rF6           6692 	lcall	_start_writecycle
                           6693 ;	S:/ELEKTR~1/EIB/C/fn_in8/fb_app_in8.c:415: write_byte(0x00,0x29,portbuffer);
                           6694 ;	genIpush
   15DE C0*1F              6695 	push	_portbuffer
                           6696 ;	genIpush
   15E0 74 29              6697 	mov	a,#0x29
   15E2 C0 E0              6698 	push	acc
                           6699 ;	genCall
   15E4 75 82 00           6700 	mov	dpl,#0x00
   15E7 12s01rFE           6701 	lcall	_write_byte
   15EA 15 81              6702 	dec	sp
   15EC 15 81              6703 	dec	sp
                           6704 ;	S:/ELEKTR~1/EIB/C/fn_in8/fb_app_in8.c:416: stop_writecycle();
                           6705 ;	genCall
   15EE 12s01rFA           6706 	lcall	_stop_writecycle
                           6707 ;	S:/ELEKTR~1/EIB/C/fn_in8/fb_app_in8.c:418: pdir=0xFF;		// Port-Direction - wenn Bit=1 darf entsprechender Portpin beschrieben werden (Ausgang), sonst nicht (Eingang)
                           6708 ;	genAssign
   15F1 75*27 FF           6709 	mov	_pdir,#0xFF
                           6710 ;	S:/ELEKTR~1/EIB/C/fn_in8/fb_app_in8.c:420: timer=0;		// Timer-Variable, wird alle 135us inkrementiert
                           6711 ;	genAssign
   15F4 E4                 6712 	clr	a
   15F5 F5*23              6713 	mov	_timer,a
   15F7 F5*24              6714 	mov	(_timer + 1),a
   15F9 F5*25              6715 	mov	(_timer + 2),a
   15FB F5*26              6716 	mov	(_timer + 3),a
                           6717 ;	S:/ELEKTR~1/EIB/C/fn_in8/fb_app_in8.c:422: start_writecycle();
                           6718 ;	genCall
   15FD 12s01rF6           6719 	lcall	_start_writecycle
                           6720 ;	S:/ELEKTR~1/EIB/C/fn_in8/fb_app_in8.c:423: write_byte(0x01,0x04,0x04);	// Herstellercode 0x04 = Jung
                           6721 ;	genIpush
   1600 74 04              6722 	mov	a,#0x04
   1602 C0 E0              6723 	push	acc
                           6724 ;	genIpush
   1604 74 04              6725 	mov	a,#0x04
   1606 C0 E0              6726 	push	acc
                           6727 ;	genCall
   1608 75 82 01           6728 	mov	dpl,#0x01
   160B 12s01rFE           6729 	lcall	_write_byte
   160E 15 81              6730 	dec	sp
   1610 15 81              6731 	dec	sp
                           6732 ;	S:/ELEKTR~1/EIB/C/fn_in8/fb_app_in8.c:424: write_byte(0x01,0x05,0x70);	// Geräte Typ (2118) 7054h
                           6733 ;	genIpush
   1612 74 70              6734 	mov	a,#0x70
   1614 C0 E0              6735 	push	acc
                           6736 ;	genIpush
   1616 74 05              6737 	mov	a,#0x05
   1618 C0 E0              6738 	push	acc
                           6739 ;	genCall
   161A 75 82 01           6740 	mov	dpl,#0x01
   161D 12s01rFE           6741 	lcall	_write_byte
   1620 15 81              6742 	dec	sp
   1622 15 81              6743 	dec	sp
                           6744 ;	S:/ELEKTR~1/EIB/C/fn_in8/fb_app_in8.c:425: write_byte(0x01,0x06,0x54);  // 	"	"	"
                           6745 ;	genIpush
   1624 74 54              6746 	mov	a,#0x54
   1626 C0 E0              6747 	push	acc
                           6748 ;	genIpush
   1628 74 06              6749 	mov	a,#0x06
   162A C0 E0              6750 	push	acc
                           6751 ;	genCall
   162C 75 82 01           6752 	mov	dpl,#0x01
   162F 12s01rFE           6753 	lcall	_write_byte
   1632 15 81              6754 	dec	sp
   1634 15 81              6755 	dec	sp
                           6756 ;	S:/ELEKTR~1/EIB/C/fn_in8/fb_app_in8.c:426: write_byte(0x01,0x07,0x02);	// Versionsnummer
                           6757 ;	genIpush
   1636 74 02              6758 	mov	a,#0x02
   1638 C0 E0              6759 	push	acc
                           6760 ;	genIpush
   163A 74 07              6761 	mov	a,#0x07
   163C C0 E0              6762 	push	acc
                           6763 ;	genCall
   163E 75 82 01           6764 	mov	dpl,#0x01
   1641 12s01rFE           6765 	lcall	_write_byte
   1644 15 81              6766 	dec	sp
   1646 15 81              6767 	dec	sp
                           6768 ;	S:/ELEKTR~1/EIB/C/fn_in8/fb_app_in8.c:427: write_byte(0x01,0x0D,0xFF);	// Run-Status (00=stop FF=run)
                           6769 ;	genIpush
   1648 74 FF              6770 	mov	a,#0xFF
   164A C0 E0              6771 	push	acc
                           6772 ;	genIpush
   164C 74 0D              6773 	mov	a,#0x0D
   164E C0 E0              6774 	push	acc
                           6775 ;	genCall
   1650 75 82 01           6776 	mov	dpl,#0x01
   1653 12s01rFE           6777 	lcall	_write_byte
   1656 15 81              6778 	dec	sp
   1658 15 81              6779 	dec	sp
                           6780 ;	S:/ELEKTR~1/EIB/C/fn_in8/fb_app_in8.c:428: write_byte(0x01,0x12,0x84);	// COMMSTAB Pointer
                           6781 ;	genIpush
   165A 74 84              6782 	mov	a,#0x84
   165C C0 E0              6783 	push	acc
                           6784 ;	genIpush
   165E 74 12              6785 	mov	a,#0x12
   1660 C0 E0              6786 	push	acc
                           6787 ;	genCall
   1662 75 82 01           6788 	mov	dpl,#0x01
   1665 12s01rFE           6789 	lcall	_write_byte
   1668 15 81              6790 	dec	sp
   166A 15 81              6791 	dec	sp
                           6792 ;	S:/ELEKTR~1/EIB/C/fn_in8/fb_app_in8.c:429: stop_writecycle();
                           6793 ;	genCall
                           6794 ;	Peephole 253.b	replaced lcall/ret with ljmp
   166C 02s01rFA           6795 	ljmp	_stop_writecycle
                           6796 ;
                           6797 ;------------------------------------------------------------
                           6798 ;Allocation info for local variables in function 'main'
                           6799 ;------------------------------------------------------------
                           6800 ;n                         Allocated to registers r2 
                           6801 ;------------------------------------------------------------
                           6802 ;	S:/ELEKTR~1/EIB/C/fn_in8/fb_in8.c:16: void main(void)
                           6803 ;	-----------------------------------------
                           6804 ;	 function main
                           6805 ;	-----------------------------------------
   166F                    6806 _main:
                           6807 ;	S:/ELEKTR~1/EIB/C/fn_in8/fb_in8.c:21: restart_hw();				// Hardware zurücksetzen
                           6808 ;	genCall
   166F 12s02r7E           6809 	lcall	_restart_hw
                           6810 ;	S:/ELEKTR~1/EIB/C/fn_in8/fb_in8.c:22: restart_prot();			// Protokoll-relevante Parameter zurücksetzen
                           6811 ;	genCall
   1672 12s09r1F           6812 	lcall	_restart_prot
                           6813 ;	S:/ELEKTR~1/EIB/C/fn_in8/fb_in8.c:23: restart_app();			// Anwendungsspezifische Einstellungen zurücksetzen
                           6814 ;	genCall
   1675 12s14rD5           6815 	lcall	_restart_app
                           6816 ;	S:/ELEKTR~1/EIB/C/fn_in8/fb_in8.c:24: portbuffer=0xFF;
                           6817 ;	genAssign
   1678 75*1F FF           6818 	mov	_portbuffer,#0xFF
                           6819 ;	S:/ELEKTR~1/EIB/C/fn_in8/fb_in8.c:26: do  {
   167B                    6820 00112$:
                           6821 ;	S:/ELEKTR~1/EIB/C/fn_in8/fb_in8.c:28: if(RTCCON>=0x80) delay_timer();	// Verzögerungs-Timer alle 130ms hochzählen
                           6822 ;	genCmpLt
                           6823 ;	genCmp
                           6824 ;	genIfxJump
                           6825 ;	Peephole 132.e	optimized genCmpLt by inverse logic (carry differs)
   167B 74 80              6826 	mov	a,#0x100 - 0x80
   167D 25 D1              6827 	add	a,_RTCCON
                           6828 ;	Peephole 112.b	changed ljmp to sjmp
                           6829 ;	Peephole 160.b	removed sjmp by inverse jump logic
   167F 50 03              6830 	jnc	00102$
                           6831 ;	Peephole 300	removed redundant label 00143$
                           6832 ;	genCall
   1681 12s10r9A           6833 	lcall	_delay_timer
   1684                    6834 00102$:
                           6835 ;	S:/ELEKTR~1/EIB/C/fn_in8/fb_in8.c:30: p0h=P0;				// prüfen ob ein Eingang sich geändert hat
                           6836 ;	genAssign
                           6837 ;	S:/ELEKTR~1/EIB/C/fn_in8/fb_in8.c:31: if (p0h!=portbuffer) 
                           6838 ;	genCmpEq
                           6839 ;	gencjneshort
                           6840 ;	peephole 177.g	optimized mov sequence
   1684 E5 80              6841 	mov	a,_P0
   1686 F5*20              6842 	mov	_p0h,a
   1688 B5*1F 02           6843 	cjne	a,_portbuffer,00144$
                           6844 ;	Peephole 112.b	changed ljmp to sjmp
   168B 80 3C              6845 	sjmp	00106$
   168D                    6846 00144$:
                           6847 ;	S:/ELEKTR~1/EIB/C/fn_in8/fb_in8.c:33: for(n=0;n<8;n++)					// jeden Eingangspin einzel prüfen
                           6848 ;	genAssign
   168D 7A 00              6849 	mov	r2,#0x00
   168F                    6850 00115$:
                           6851 ;	genCmpLt
                           6852 ;	genCmp
   168F BA 08 00           6853 	cjne	r2,#0x08,00145$
   1692                    6854 00145$:
                           6855 ;	genIfxJump
                           6856 ;	Peephole 108.a	removed ljmp by inverse jump logic
   1692 50 32              6857 	jnc	00118$
                           6858 ;	Peephole 300	removed redundant label 00146$
                           6859 ;	S:/ELEKTR~1/EIB/C/fn_in8/fb_in8.c:35: if (((p0h>>n)&0x01) != ((portbuffer>>n)&0x01))
                           6860 ;	genRightShift
   1694 8A F0              6861 	mov	b,r2
   1696 05 F0              6862 	inc	b
   1698 E5*20              6863 	mov	a,_p0h
   169A 80 02              6864 	sjmp	00148$
   169C                    6865 00147$:
   169C C3                 6866 	clr	c
   169D 13                 6867 	rrc	a
   169E                    6868 00148$:
   169E D5 F0 FB           6869 	djnz	b,00147$
                           6870 ;	genAnd
   16A1 54 01              6871 	anl	a,#0x01
   16A3 FB                 6872 	mov	r3,a
                           6873 ;	genRightShift
   16A4 8A F0              6874 	mov	b,r2
   16A6 05 F0              6875 	inc	b
   16A8 E5*1F              6876 	mov	a,_portbuffer
   16AA 80 02              6877 	sjmp	00150$
   16AC                    6878 00149$:
   16AC C3                 6879 	clr	c
   16AD 13                 6880 	rrc	a
   16AE                    6881 00150$:
   16AE D5 F0 FB           6882 	djnz	b,00149$
                           6883 ;	genAnd
   16B1 54 01              6884 	anl	a,#0x01
   16B3 FC                 6885 	mov	r4,a
                           6886 ;	genCmpEq
                           6887 ;	gencjneshort
   16B4 EB                 6888 	mov	a,r3
   16B5 B5 04 02           6889 	cjne	a,ar4,00151$
                           6890 ;	Peephole 112.b	changed ljmp to sjmp
   16B8 80 09              6891 	sjmp	00117$
   16BA                    6892 00151$:
                           6893 ;	S:/ELEKTR~1/EIB/C/fn_in8/fb_in8.c:37: pin_changed(n);				// Änderung verarbeiten
                           6894 ;	genCall
   16BA 8A 82              6895 	mov	dpl,r2
   16BC C0 02              6896 	push	ar2
   16BE 12s09r48           6897 	lcall	_pin_changed
   16C1 D0 02              6898 	pop	ar2
   16C3                    6899 00117$:
                           6900 ;	S:/ELEKTR~1/EIB/C/fn_in8/fb_in8.c:33: for(n=0;n<8;n++)					// jeden Eingangspin einzel prüfen
                           6901 ;	genPlus
                           6902 ;     genPlusIncr
   16C3 0A                 6903 	inc	r2
                           6904 ;	Peephole 112.b	changed ljmp to sjmp
   16C4 80 C9              6905 	sjmp	00115$
   16C6                    6906 00118$:
                           6907 ;	S:/ELEKTR~1/EIB/C/fn_in8/fb_in8.c:40: portbuffer=p0h;					// neuen Portzustand in buffer speichern
                           6908 ;	genAssign
   16C6 85*20*1F           6909 	mov	_portbuffer,_p0h
   16C9                    6910 00106$:
                           6911 ;	S:/ELEKTR~1/EIB/C/fn_in8/fb_in8.c:43: TASTER=1;				// Pin als Eingang schalten um Taster abzufragen
                           6912 ;	genAssign
   16C9 D2 97              6913 	setb	_P1_7
                           6914 ;	S:/ELEKTR~1/EIB/C/fn_in8/fb_in8.c:44: if(!TASTER) {				// Taster gedrückt
                           6915 ;	genIfx
                           6916 ;	genIfxJump
                           6917 ;	Peephole 108.e	removed ljmp by inverse jump logic
   16CB 20 97 09           6918 	jb	_P1_7,00111$
                           6919 ;	Peephole 300	removed redundant label 00152$
                           6920 ;	S:/ELEKTR~1/EIB/C/fn_in8/fb_in8.c:45: for(n=0;n<100;n++) {}
                           6921 ;	genAssign
   16CE 7A 64              6922 	mov	r2,#0x64
   16D0                    6923 00121$:
                           6924 ;	genDjnz
                           6925 ;	Peephole 112.b	changed ljmp to sjmp
                           6926 ;	Peephole 205	optimized misc jump sequence
   16D0 DA FE              6927 	djnz	r2,00121$
                           6928 ;	Peephole 300	removed redundant label 00153$
                           6929 ;	Peephole 300	removed redundant label 00154$
                           6930 ;	S:/ELEKTR~1/EIB/C/fn_in8/fb_in8.c:46: while(!TASTER);
   16D2                    6931 00107$:
                           6932 ;	genIfx
                           6933 ;	genIfxJump
                           6934 ;	Peephole 108.d	removed ljmp by inverse jump logic
   16D2 30 97 FD           6935 	jnb	_P1_7,00107$
                           6936 ;	Peephole 300	removed redundant label 00155$
                           6937 ;	S:/ELEKTR~1/EIB/C/fn_in8/fb_in8.c:47: progmode=!progmode;
                           6938 ;	genNot
   16D5 B2*01              6939 	cpl	_progmode
   16D7                    6940 00111$:
                           6941 ;	S:/ELEKTR~1/EIB/C/fn_in8/fb_in8.c:49: TASTER=!progmode;				// LED entsprechend schalten (low=LED an)
                           6942 ;	genNot
   16D7 A2*01              6943 	mov	c,_progmode
   16D9 B3                 6944 	cpl	c
   16DA 92 97              6945 	mov	_P1_7,c
                           6946 ;	S:/ELEKTR~1/EIB/C/fn_in8/fb_in8.c:50: for(n=0;n<100;n++) {}
                           6947 ;	genAssign
   16DC 7A 64              6948 	mov	r2,#0x64
   16DE                    6949 00124$:
                           6950 ;	genDjnz
                           6951 ;	Peephole 112.b	changed ljmp to sjmp
                           6952 ;	Peephole 205	optimized misc jump sequence
   16DE DA FE              6953 	djnz	r2,00124$
                           6954 ;	Peephole 300	removed redundant label 00156$
                           6955 ;	Peephole 300	removed redundant label 00157$
                           6956 ;	S:/ELEKTR~1/EIB/C/fn_in8/fb_in8.c:51: } while(1);
                           6957 ;	Peephole 112.b	changed ljmp to sjmp
   16E0 80 99              6958 	sjmp	00112$
                           6959 ;	Peephole 259.a	removed redundant label 00125$ and ret
                           6960 ;
                           6961 	.area CSEG    (CODE)
                           6962 	.area CONST   (CODE)
                    1C00   6963 _dataflash	=	0x1c00
                           6964 	.area XINIT   (CODE)
